###############################################################################
#                                                                             #
# IAR C/C++ Compiler V5.50.0.50277/W32 for Atmel AVR    02/Dec/2013  00:33:00 #
# Copyright (C) 1996-2010 IAR Systems AB.                                     #
#                                                                             #
#    Source file  =  D:\Work\IAR\TIEF_Framework\TIEL_FrameWork\CPU\AVR_Driver #
#                    \avr_uart.cpp                                            #
#    Command line =  D:\Work\IAR\TIEF_Framework\TIEL_FrameWork\CPU\AVR_Driver #
#                    \avr_uart.cpp --cpu=m128 -ms -o                          #
#                    D:\Work\IAR\TIEF_Framework\ATmega128_Release\Obj\ -D     #
#                    NDEBUG -D xWATCHDOG_ENABLE -lC                           #
#                    D:\Work\IAR\TIEF_Framework\ATmega128_Release\List\ -y    #
#                    --initializers_in_flash -z9 --cross_call_passes=2        #
#                    -DENABLE_BIT_DEFINITIONS --do_cross_call -e -I ./\ -I    #
#                    D:\Work\IAR\TIEF_Framework\ -I                           #
#                    D:\Work\IAR\TIEF_Framework/TIEL_FrameWork/Basic_Componen #
#                    t\ -I D:\Work\IAR\TIEF_Framework/TIEL_FrameWork/BSP/MC_E #
#                    02SMB_v1_3\ -I D:\Work\IAR\TIEF_Framework/TIEL_FrameWork #
#                    /Common\ -I D:\Work\IAR\TIEF_Framework/TIEL_FrameWork/Co #
#                    nfiguration\ -I D:\Work\IAR\TIEF_Framework/TIEL_FrameWor #
#                    k/CPU/AVR_Driver\ -I D:\Work\IAR\TIEF_Framework/TIEL_Fra #
#                    meWork/Driver_Interface\ -I                              #
#                    D:\Work\IAR\TIEF_Framework/TIEL_FrameWork/Drivers\ -I    #
#                    D:\Work\IAR\TIEF_Framework/TIEL_FrameWork/Service\ -I    #
#                    D:\Work\IAR\TIEF_Framework/TIEL_FrameWork/System\ -I     #
#                    D:\Work\IAR\TIEF_Framework/TIEL_FrameWork/Test\ -I       #
#                    D:\Work\IAR\TIEF_Framework/TIEL_FrameWork/Utils\ -I      #
#                    D:\Work\IAR\TIEF_Framework/BUILD_COUNT\ -I "C:\Program   #
#                    Files (x86)\IAR Systems\Embedded Workbench               #
#                    5.4_0\avr\INC\" -I "C:\Program Files (x86)\IAR           #
#                    Systems\Embedded Workbench 5.4_0\avr\INC\DLIB\"          #
#                    --eeprom_size 4096 --eec++ --dlib_config "C:\Program     #
#                    Files (x86)\IAR Systems\Embedded Workbench               #
#                    5.4_0\avr\LIB\DLIB\dlAVR-3s-ec_mul-n.h"                  #
#    List file    =  D:\Work\IAR\TIEF_Framework\ATmega128_Release\List\avr_ua #
#                    rt.lst                                                   #
#    Object file  =  D:\Work\IAR\TIEF_Framework\ATmega128_Release\Obj\avr_uar #
#                    t.r90                                                    #
#                                                                             #
#                                                                             #
###############################################################################

D:\Work\IAR\TIEF_Framework\TIEL_FrameWork\CPU\AVR_Driver\avr_uart.cpp
      1          ///////////////////////////////////////////////////////////////////////////////////////
      2           
      3          // Project description
      4           
      5          // -------------------------------------------
      6           
      7          // Description: avr_uart Class
      8           
      9          //
     10           
     11          // Author: Yoo Joo-Hyoung (potato97@naver.com)
     12           
     13          // Site: ccrs.hanyang.ac.kr
     14           
     15          // Copyright (C) 2013-2013 TIEL(TIEL is Embedded S/W library) Project.
     16           
     17          //
     18           
     19          //////////////////////////////////////////////////////////////////////////////////////////
     20          //
     21          //    License type: GNU General Public License (GPL)
     22          //      
     23          //    This program is free software: you can redistribute it and/or modify
     24          //    it under the terms of the GNU General Public License as published by
     25          //    the Free Software Foundation, either version 3 of the License, or
     26          //    (at your option) any later version.
     27          
     28          //    This program is distributed in the hope that it will be useful,
     29          //    but WITHOUT ANY WARRANTY; without even the implied warranty of
     30          //    MERCHANTABILITY or FITNESS FOR A PARTICULAR PURPOSE.  See the
     31          //    GNU General Public License for more details.
     32          
     33          //    You should have received a copy of the GNU General Public License
     34          //    along with this program.  If not, see <http://www.gnu.org/licenses/>.
     35          //
     36          //////////////////////////////////////////////////////////////////////////////////////////
     37          
     38          #include "avr_uart.h"

   \                                 In  segment CODE, align 2, keep-with-next
   \   __nearfunc __version_3 Avr_uart0::~Avr_uart0()
   \                     `?~Avr_uart0`:
   \   00000000   2F40               MOV     R20, R16
   \   00000002   2B41               OR      R20, R17
   \   00000004   F021               BREQ    `?~Avr_uart0_1`
   \   00000006   FF20               SBRS    R18, 0
   \   00000008   C002               RJMP    `?~Avr_uart0_1`
   \   0000000A   ........           CALL    `??operator delete`
   \                     `?~Avr_uart0_1`:
   \   0000000E   9508               RET
     39          #include "avr_common.h"
     40          #include <ioavr.h>

   \                                 In  segment ABSOLUTE, at 0x29
   \   <__C9> volatile __io _A_UBRR0L
   \                     _A_UBRR0L:
   \   00000000                      DS8 1

   \                                 In  segment ABSOLUTE, at 0x2a
   \   <__C10> volatile __io _A_UCSR0B
   \                     _A_UCSR0B:
   \   00000000                      DS8 1

   \                                 In  segment ABSOLUTE, at 0x2b
   \   <__C11> volatile __io _A_UCSR0A
   \                     _A_UCSR0A:
   \   00000000                      DS8 1

   \                                 In  segment ABSOLUTE, at 0x2c
   \   <__C12> volatile __io _A_UDR0
   \                     _A_UDR0:
   \   00000000                      DS8 1

   \                                 In  segment ABSOLUTE, at 0x31
   \   <__C17> volatile __io _A_DDRD
   \                     _A_DDRD:
   \   00000000                      DS8 1

   \                                 In  segment ABSOLUTE, at 0x90
   \   <__C85> volatile __io _A_UBRR0H
   \                     _A_UBRR0H:
   \   00000000                      DS8 1

   \                                 In  segment ABSOLUTE, at 0x95
   \   <__C86> volatile __io _A_UCSR0C
   \                     _A_UCSR0C:
   \   00000000                      DS8 1
     41          #include <inavr.h>
     42          

   \                                 In  segment NEAR_Z, align 1, keep-with-next
   \   00000000                      REQUIRE `?<Segment init: NEAR_Z>`
     43          static Avr_uart0 * uart0 = 0;
   \                     uart0:
   \   00000000                      DS8 2
     44          
     45          #define UDRIE 5
     46          
     47          #if defined(__ATmega128__)
     48          #pragma vector = USART0_RXC_vect
     49          #endif
     50          
     51          #if defined(__ATmega164P__) | defined(__ATmega164PA__) | defined(__ATmega324P__)
     52          #pragma vector = USART0_RX_vect // for atmega164/324
     53          #endif

   \                                 In  segment CODE, align 2, keep-with-next
     54          __interrupt void usart0_rxc(void)
   \                     ??usart0_rxc:
     55          {
   \   00000000   ....               RCALL   ?Subroutine0
     56            if(0 != uart0)
   \                     ??CrossCallReturnLabel_0:
   \   00000002   ....               RCALL   ?Subroutine3
   \                     ??CrossCallReturnLabel_4:
   \   00000004   F031               BREQ    ??usart0_rxc_1
     57              uart0->SendrxBuff(UDR0);
   \   00000006   B12C               IN      R18, 0x0C
   \   00000008   ....               RCALL   ?Subroutine2
   \                     ??CrossCallReturnLabel_2:
   \   0000000A   F019               BREQ    ??usart0_rxc_1
   \   0000000C   8100               LD      R16, Z
   \   0000000E   ........           CALL    ??PushBackRxBuff
     58          }
   \                     ??usart0_rxc_1:
   \   00000012                      REQUIRE ?Subroutine6
   \   00000012                      REQUIRE _A_UDR0
   \   00000012                      ;               // Fall through to label ?Subroutine6

   \                                 In  segment CODE, align 2, keep-with-next
   \                     ?Subroutine6:
   \   00000000   ....               RCALL   ?Subroutine1
   \                     ??CrossCallReturnLabel_6:
   \   00000002   9518               RETI

   \                                 In  segment CODE, align 2, keep-with-next
   \                     ?Subroutine3:
   \   00000000   9100....           LDS     R16, uart0
   \   00000004   9110....           LDS     R17, (uart0 + 1)
   \   00000008                      REQUIRE ?Subroutine4
   \   00000008                      ;               // Fall through to label ?Subroutine4

   \                                 In  segment CODE, align 2, keep-with-next
   \                     ?Subroutine4:
   \   00000000   2B01               OR      R16, R17
   \   00000002   9508               RET

   \                                 In  segment CODE, align 2, keep-with-next
   \                     ?Subroutine2:
   \   00000000   91E0....           LDS     R30, uart0
   \   00000004   91F0....           LDS     R31, (uart0 + 1)
   \   00000008   8100               LD      R16, Z
   \   0000000A   8111               LDD     R17, Z+1
   \   0000000C   ....               RJMP    ?Subroutine4

   \                                 In  segment CODE, align 2, keep-with-next
   \                     ?Subroutine1:
   \   00000000   BF9B               OUT     0x3B, R25
   \   00000002   BF8F               OUT     0x3F, R24
   \   00000004   9109               LD      R16, Y+
   \   00000006   9119               LD      R17, Y+
   \   00000008   9129               LD      R18, Y+
   \   0000000A   9139               LD      R19, Y+
   \   0000000C   9149               LD      R20, Y+
   \   0000000E   9159               LD      R21, Y+
   \   00000010   9169               LD      R22, Y+
   \   00000012   9179               LD      R23, Y+
   \   00000014   9009               LD      R0, Y+
   \   00000016   9019               LD      R1, Y+
   \   00000018   9029               LD      R2, Y+
   \   0000001A   9039               LD      R3, Y+
   \   0000001C   91E9               LD      R30, Y+
   \   0000001E   91F9               LD      R31, Y+
   \   00000020   9189               LD      R24, Y+
   \   00000022   9199               LD      R25, Y+
   \   00000024   9508               RET

   \                                 In  segment CODE, align 2, keep-with-next
   \                     ?Subroutine0:
   \   00000000   939A               ST      -Y, R25
   \   00000002   938A               ST      -Y, R24
   \   00000004   93FA               ST      -Y, R31
   \   00000006   93EA               ST      -Y, R30
   \   00000008   923A               ST      -Y, R3
   \   0000000A   922A               ST      -Y, R2
   \   0000000C   921A               ST      -Y, R1
   \   0000000E   920A               ST      -Y, R0
   \   00000010   937A               ST      -Y, R23
   \   00000012   936A               ST      -Y, R22
   \   00000014   935A               ST      -Y, R21
   \   00000016   934A               ST      -Y, R20
   \   00000018   933A               ST      -Y, R19
   \   0000001A   932A               ST      -Y, R18
   \   0000001C   931A               ST      -Y, R17
   \   0000001E   930A               ST      -Y, R16
   \   00000020   B78F               IN      R24, 0x3F
   \   00000022   B79B               IN      R25, 0x3B
   \   00000024   9508               RET
     59          
     60          #pragma vector = USART0_UDRE_vect // for atmega164

   \                                 In  segment CODE, align 2, keep-with-next
     61          __interrupt void usart0_txc(void)
   \                     ??usart0_txc:
     62          {
   \   00000000   ....               RCALL   ?Subroutine0
   \                     ??CrossCallReturnLabel_1:
   \   00000002   9721               SBIW    R29:R28, 1
     63            unsigned char t;
     64            
     65            if(0 != uart0){
   \   00000004   ....               RCALL   ?Subroutine3
   \                     ??CrossCallReturnLabel_5:
   \   00000006   F061               BREQ    ??usart0_txc_1
     66              if(uart0->SendtxBuff(t))
   \   00000008   ....               RCALL   ?Subroutine2
   \                     ??CrossCallReturnLabel_3:
   \   0000000A   F049               BREQ    ??usart0_txc_2
   \   0000000C   019E               MOVW    R19:R18, R29:R28
   \   0000000E   8100               LD      R16, Z
   \   00000010   ........           CALL    ??PopTxBuff
   \   00000014   2300               TST     R16
   \   00000016   F019               BREQ    ??usart0_txc_2
     67              {
     68                UDR0 = t;
   \   00000018   8108               LD      R16, Y
   \   0000001A   B90C               OUT     0x0C, R16
   \   0000001C   C001               RJMP    ??usart0_txc_1
     69              }
     70              else
     71              {
     72                UCSR0B &= ~(1 << UDRIE);
   \                     ??usart0_txc_2:
   \   0000001E   9855               CBI     0x0A, 0x05
     73              }
     74            }
     75          }
   \                     ??usart0_txc_1:
   \   00000020   9621               ADIW    R29:R28, 1
   \   00000022   ....               RJMP    ?Subroutine6
   \   00000024                      REQUIRE _A_UCSR0B
   \   00000024                      REQUIRE _A_UDR0
     76          

   \                                 In  segment CODE, align 2, keep-with-next
     77          Avr_uart0::Avr_uart0()
   \                     ??Avr_uart0:
   \   00000000   93BA               ST      -Y, R27
   \   00000002   93AA               ST      -Y, R26
   \   00000004   01D8               MOVW    R27:R26, R17:R16
     78          {
   \   00000006   E000               LDI     R16, 0
   \   00000008   930D               ST      X+, R16
   \   0000000A   930C               ST      X, R16
   \   0000000C   9611               ADIW    R27:R26, 1
   \   0000000E   E916               LDI     R17, 150
   \   00000010   930D               ST      X+, R16
   \   00000012   931D               ST      X+, R17
   \   00000014   930D               ST      X+, R16
   \   00000016   930C               ST      X, R16
   \   00000018   9611               ADIW    R27:R26, 1
   \   0000001A   ....               LDI     R16, LOW(??__vtbl)
   \   0000001C   ....               LDI     R17, (??__vtbl) >> 8
   \   0000001E   930D               ST      X+, R16
   \   00000020   931C               ST      X, R17
   \   00000022   9717               SBIW    R27:R26, 7
     79            Init();
   \   00000024   018D               MOVW    R17:R16, R27:R26
   \   00000026   ....               RCALL   ??Init
     80            uart0 = this;
   \   00000028   ....               LDI     R30, LOW(uart0)
   \   0000002A   ....               LDI     R31, (uart0) >> 8
   \   0000002C   83A0               ST      Z, R26
   \   0000002E   83B1               STD     Z+1, R27
     81          }
   \   00000030   018D               MOVW    R17:R16, R27:R26
   \   00000032   91A9               LD      R26, Y+
   \   00000034                      REQUIRE ?Subroutine5
   \   00000034                      ;               // Fall through to label ?Subroutine5

   \                                 In  segment CODE, align 2, keep-with-next
   \                     ?Subroutine5:
   \   00000000   91B9               LD      R27, Y+
   \   00000002   9508               RET
     82          

   \                                 In  segment CODE, align 2, keep-with-next
     83          void Avr_uart0::Init(void)
   \                     ??Init:
     84          {
   \   00000000   93BA               ST      -Y, R27
   \   00000002   2FFA               MOV     R31, R26
   \   00000004   01D8               MOVW    R27:R26, R17:R16
     85           // unsigned long baud = 38400;  
     86            /*================================
     87              BAUD = F_CPU / (16 * (UBRR + 1) )
     88              UBRR = (F_CPU / (16L*baud)) - 1
     89            ==================================*/
     90            
     91            __disable_interrupt();
   \   00000006   94F8               CLI
     92            
     93             baud = (F_CPU / (16L*baud)) - 1;    
   \   00000008   9612               ADIW    R27:R26, 2
   \   0000000A   910D               LD      R16, X+
   \   0000000C   911D               LD      R17, X+
   \   0000000E   912D               LD      R18, X+
   \   00000010   913C               LD      R19, X
   \   00000012   9713               SBIW    R27:R26, 3
   \   00000014   E044               LDI     R20, 4
   \   00000016   ........           CALL    ?L_SHL_L03
   \   0000001A   01A8               MOVW    R21:R20, R17:R16
   \   0000001C   01B9               MOVW    R23:R22, R19:R18
   \   0000001E   E000               LDI     R16, 0
   \   00000020   E214               LDI     R17, 36
   \   00000022   EF24               LDI     R18, 244
   \   00000024   E030               LDI     R19, 0
   \   00000026   ........           CALL    ?UL_DIVMOD_L03
   \   0000002A   5001               SUBI    R16, 1
   \   0000002C   4010               SBCI    R17, 0
   \   0000002E   4020               SBCI    R18, 0
   \   00000030   4030               SBCI    R19, 0
   \   00000032   930D               ST      X+, R16
   \   00000034   931D               ST      X+, R17
   \   00000036   932D               ST      X+, R18
   \   00000038   933C               ST      X, R19
   \   0000003A   9713               SBIW    R27:R26, 3
     94          // buad 로 인자로 받아온 buad로 초기화..
     95                
     96            //uart1 register baud setting
     97             UBRR0H = (unsigned char)(baud>>8);            // 클경우 상위 8bit만 잘리기에..
   \   0000003C   9310....           STS     _A_UBRR0H, R17
     98             UBRR0L = (unsigned char)(baud);
   \   00000040   910D               LD      R16, X+
   \   00000042   B909               OUT     0x09, R16
     99            
    100             DDRD|= 1 << 1;     
   \   00000044   9A89               SBI     0x11, 0x01
    101             
    102            
    103             UCSR0A=0x00;
   \   00000046   E000               LDI     R16, 0
   \   00000048   B90B               OUT     0x0B, R16
    104            // UCSR0B=0x18;   // Receive enable, Transmitte enable
    105            // UCSR0C=0x06;   // 비동기 방식, No parity bit, 1 stop bit   
    106          
    107          //   UBRR0H=0x00;
    108          //   UBRR0L=0x67;   // 16MHz에서 9600 bps  (10진수 103)
    109              
    110              // UCSR0B 설정
    111              // bit7:수신완료 인터럽허용 , 
    112              // bit6:송신완료 인터럽허용, 
    113              // bit4:uart rx enable, 
    114              // bit3: uart tx enable
    115              // bit2 : sendding size setting UCSR0C 같이 설정 => 0 : 8bit
    116              // 11011000 
    117          
    118          //    UCSR0B = (1<<7) | (1<<6) | (1<<4) | (1<<3) | (0<<2) ; // 00011000 
    119              UCSR0B = (1<<7) | (1<<4) | (1<<3) | (0<<2) ; // 00011000 
   \   0000004A   E908               LDI     R16, 152
   \   0000004C   B90A               OUT     0x0A, R16
    120            
    121              // UCSR0C 설정
    122              // bit6 : synchro setting => 0: dissynchro mode
    123              // bit5,bit4 : parity bit setting => 00 : not used
    124              // bit3 : stop bit setting => 0 : stop bit 2 use
    125              // bit2,bit1 : data sendding size => 11 : 8bit
    126              // 00001010
    127                  
    128              UCSR0C = (0<<3) | (1<<2) | (1<<1) | (0<<5) | (0<<4);
   \   0000004E   E006               LDI     R16, 6
   \   00000050   9300....           STS     _A_UCSR0C, R16
    129            
    130            __enable_interrupt();
   \   00000054   9478               SEI
    131          }
   \   00000056   2FAF               MOV     R26, R31
   \   00000058   ....               RJMP    ?Subroutine5
   \   0000005A                      REQUIRE _A_UBRR0L
   \   0000005A                      REQUIRE _A_UCSR0B
   \   0000005A                      REQUIRE _A_UCSR0A
   \   0000005A                      REQUIRE _A_DDRD
   \   0000005A                      REQUIRE _A_UBRR0H
   \   0000005A                      REQUIRE _A_UCSR0C
    132          

   \                                 In  segment CODE, align 2, keep-with-next
    133          void Avr_uart0::Run(void)
   \                     ??Run:
    134          {
    135            //assert()
    136            
    137            
    138          }
   \   00000000   9508               RET
    139          

   \                                 In  segment CODE, align 2, keep-with-next
    140          void Avr_uart0::SendTxEvent(void)
   \                     ??SendTxEvent:
    141          {
    142            
    143            UCSR0B |= (1 << UDRIE);
   \   00000000   9A55               SBI     0x0A, 0x05
    144          }
   \   00000002   9508               RET
   \   00000004                      REQUIRE _A_UCSR0B
    145          

   \                                 In  segment CODE, align 2, keep-with-next
    146          unsigned char Avr_uart0::Write(unsigned char _data)
   \                     ??Write:
    147          {
    148          //  assert()
    149            
    150            // UCSRnA 
    151            // bit5 : 송신 버퍼가 비어서 데이터를 받을 준비되면 1
    152          //   while (!(UCSR0A & 0x20))
    153          //      ;    //wait xmit ready
    154          
    155             if(UCSR0A & 0x20)
   \   00000000   9B5D               SBIS    0x0B, 0x05
   \   00000002   C003               RJMP    ??Write_1
    156             {
    157               UDR0 = (unsigned char) _data;
   \   00000004   B92C               OUT     0x0C, R18
    158               return 1;
   \   00000006   E001               LDI     R16, 1
   \   00000008   9508               RET
    159             }
    160             else
    161             {
    162               return 0;
   \                     ??Write_1:
   \   0000000A   E000               LDI     R16, 0
   \   0000000C   9508               RET
   \   0000000E                      REQUIRE _A_UCSR0A
   \   0000000E                      REQUIRE _A_UDR0
    163             }
    164          
    165            
    166            
    167          }

   \                                 In  segment INTVEC, offset 0x48, root
   \                     `??usart0_rxc??INTVEC 72`:
   \   00000048   ........           JMP     ??usart0_rxc

   \                                 In  segment INTVEC, offset 0x4c, root
   \                     `??usart0_txc??INTVEC 76`:
   \   0000004C   ........           JMP     ??usart0_txc

   \                                 In  segment CODE, align 2, keep-with-next
   \   __nearfunc __version_3 Avr_uart0 *Avr_uart0::new Avr_uart0()
   \                     `??new Avr_uart0`:
   \   00000000   E008               LDI     R16, 8
   \   00000002   E010               LDI     R17, 0
   \   00000004   ........           CALL    `??operator new`
   \   00000008   2F20               MOV     R18, R16
   \   0000000A   2B21               OR      R18, R17
   \   0000000C   F009               BREQ    `??new Avr_uart0_1`
   \   0000000E   ....               RJMP    ??Avr_uart0
   \                     `??new Avr_uart0_1`:
   \   00000010   E000               LDI     R16, 0
   \   00000012   E010               LDI     R17, 0
   \   00000014   9508               RET

   Maximum stack usage in bytes:

     Function                       CSTACK RSTACK
     --------                       ------ ------
     Avr_uart0::Avr_uart0()             2      2
       -> Avr_uart0::Init()             2      2
     Avr_uart0::Init()                  2      4
     Avr_uart0::Run()                   0      2
     Avr_uart0::SendTxEvent()           0      2
     Avr_uart0::Write(unsigned char)
                                        0      2
     Avr_uart0::new Avr_uart0()         0      2
       -> operator new(unsigned int)
                                        0      2
       -> Avr_uart0::Avr_uart0()        0      2
     Avr_uart0::~Avr_uart0()            0      2
       -> operator delete(void *)       0      2
     usart0_rxc()                      16      2
       -> SerialIO::PushBackRxBuff(unsigned char)
                                       16      2
     usart0_txc()                      17      2
       -> SerialIO::PopTxBuff(unsigned char &)
                                       17      2


   Segment part sizes:

     Function/Label                 Bytes
     --------------                 -----
     Avr_uart0::~Avr_uart0()          16
     _A_UBRR0L                         1
     _A_UCSR0B                         1
     _A_UCSR0A                         1
     _A_UDR0                           1
     _A_DDRD                           1
     _A_UBRR0H                         1
     _A_UCSR0C                         1
     uart0                             2
     usart0_rxc()                     18
     ?Subroutine6                      4
     ?Subroutine3                      8
     ?Subroutine4                      4
     ?Subroutine2                     14
     ?Subroutine1                     38
     ?Subroutine0                     38
     usart0_txc()                     36
     Avr_uart0::Avr_uart0()           52
     ?Subroutine5                      4
     Avr_uart0::Init()                90
     Avr_uart0::Run()                  2
     Avr_uart0::SendTxEvent()          4
     Avr_uart0::Write(unsigned char)
                                      14
     ??usart0_rxc??INTVEC 72           4
     ??usart0_txc??INTVEC 76           4
     Avr_uart0::new Avr_uart0()       22
      Others                          15

 
   7 bytes in segment ABSOLUTE
 364 bytes in segment CODE
   7 bytes in segment INITTAB
   8 bytes in segment INTVEC
   8 bytes in segment NEAR_F
   2 bytes in segment NEAR_Z
 
 348 bytes of CODE memory (+ 39 bytes shared)
   2 bytes of DATA memory (+  7 bytes shared)

Errors: none
Warnings: none
