###############################################################################
#                                                                             #
# IAR C/C++ Compiler V5.50.0.50277/W32 for Atmel AVR    02/Dec/2013  00:33:03 #
# Copyright (C) 1996-2010 IAR Systems AB.                                     #
#                                                                             #
#    Source file  =  D:\Work\IAR\TIEF_Framework\APP\Term_Project\Term_Project #
#                    _s.cpp                                                   #
#    Command line =  D:\Work\IAR\TIEF_Framework\APP\Term_Project\Term_Project #
#                    _s.cpp --cpu=m128 -ms -o D:\Work\IAR\TIEF_Framework\ATme #
#                    ga128_Release\Obj\ -D NDEBUG -D xWATCHDOG_ENABLE -lC     #
#                    D:\Work\IAR\TIEF_Framework\ATmega128_Release\List\ -y    #
#                    --initializers_in_flash -z9 --cross_call_passes=2        #
#                    -DENABLE_BIT_DEFINITIONS --do_cross_call -e -I ./\ -I    #
#                    D:\Work\IAR\TIEF_Framework\ -I                           #
#                    D:\Work\IAR\TIEF_Framework/TIEL_FrameWork/Basic_Componen #
#                    t\ -I D:\Work\IAR\TIEF_Framework/TIEL_FrameWork/BSP/MC_E #
#                    02SMB_v1_3\ -I D:\Work\IAR\TIEF_Framework/TIEL_FrameWork #
#                    /Common\ -I D:\Work\IAR\TIEF_Framework/TIEL_FrameWork/Co #
#                    nfiguration\ -I D:\Work\IAR\TIEF_Framework/TIEL_FrameWor #
#                    k/CPU/AVR_Driver\ -I D:\Work\IAR\TIEF_Framework/TIEL_Fra #
#                    meWork/Driver_Interface\ -I                              #
#                    D:\Work\IAR\TIEF_Framework/TIEL_FrameWork/Drivers\ -I    #
#                    D:\Work\IAR\TIEF_Framework/TIEL_FrameWork/Service\ -I    #
#                    D:\Work\IAR\TIEF_Framework/TIEL_FrameWork/System\ -I     #
#                    D:\Work\IAR\TIEF_Framework/TIEL_FrameWork/Test\ -I       #
#                    D:\Work\IAR\TIEF_Framework/TIEL_FrameWork/Utils\ -I      #
#                    D:\Work\IAR\TIEF_Framework/BUILD_COUNT\ -I "C:\Program   #
#                    Files (x86)\IAR Systems\Embedded Workbench               #
#                    5.4_0\avr\INC\" -I "C:\Program Files (x86)\IAR           #
#                    Systems\Embedded Workbench 5.4_0\avr\INC\DLIB\"          #
#                    --eeprom_size 4096 --eec++ --dlib_config "C:\Program     #
#                    Files (x86)\IAR Systems\Embedded Workbench               #
#                    5.4_0\avr\LIB\DLIB\dlAVR-3s-ec_mul-n.h"                  #
#    List file    =  D:\Work\IAR\TIEF_Framework\ATmega128_Release\List\Term_P #
#                    roject_s.lst                                             #
#    Object file  =  D:\Work\IAR\TIEF_Framework\ATmega128_Release\Obj\Term_Pr #
#                    oject_s.r90                                              #
#                                                                             #
#                                                                             #
###############################################################################

D:\Work\IAR\TIEF_Framework\APP\Term_Project\Term_Project_s.cpp
      1          #include "Term_Project_s.h"

    CreateWatchDog();
    ^
"D:\Work\IAR\TIEF_Framework\TIEL_FrameWork\Driver_Interface\DriverFactory.h",80  Warning[Pe837]: 
          omission of explicit type is nonstandard ("int" assumed)

   \                                 In  segment CODE, align 2, keep-with-next
   \   __nearfunc __version_3 void SystemManager::Exit()
   \                     ??Exit:
   \   00000000   9508               RET

   \                                 In  segment CODE, align 2, keep-with-next
   \   __nearfunc __version_3 Term_Project_s::~Term_Project_s()
   \                     `?~Term_Project_s`:
   \   00000000   ........           CALL    ?PROLOGUE3_L09
   \   00000004   01C8               MOVW    R25:R24, R17:R16
   \   00000006   2FA2               MOV     R26, R18
   \   00000008   2B01               OR      R16, R17
   \   0000000A   F051               BREQ    `?~Term_Project_s_1`
   \   0000000C   E020               LDI     R18, 0
   \   0000000E   E030               LDI     R19, 0
   \   00000010   2F08               MOV     R16, R24
   \   00000012   ........           CALL    `?~SystemManager`
   \   00000016   FFA0               SBRS    R26, 0
   \   00000018   C003               RJMP    `?~Term_Project_s_1`
   \   0000001A   018C               MOVW    R17:R16, R25:R24
   \   0000001C   ........           CALL    `??operator delete`
   \                     `?~Term_Project_s_1`:
   \   00000020   E0E3               LDI     R30, 3
   \   00000022   ........           JMP     ?EPILOGUE_B3_L09
      2          #include <cassert>
      3          #include <cstring>
      4          #include "BCComponentManager.h"
      5          
      6          
      7          #include "CalClkFuncGen.h"
      8          

   \                                 In  segment CODE, align 2, keep-with-next
      9          class myTimer1s : public ITimerEvent
   \   __nearfunc __version_3 myTimer1s::~myTimer1s()
   \                     `?~myTimer1s`:
   \   00000000   2F40               MOV     R20, R16
   \   00000002   2B41               OR      R20, R17
   \   00000004   F021               BREQ    `?~myTimer1s_1`
   \   00000006   FF20               SBRS    R18, 0
   \   00000008   C002               RJMP    `?~myTimer1s_1`
   \   0000000A   ........           CALL    `??operator delete`
   \                     `?~myTimer1s_1`:
   \   0000000E   9508               RET
     10          {
     11            Led          * led;
     12            CalClkFuncGen * ccf;
     13          
     14          public:
     15            myTimer1s(void)
     16              :ITimerEvent(0,1000) // 1000ms
     17            {
     18              
     19            }
     20            void SetLed(Led * _led)
     21            {
     22              led = _led;
     23            }
     24            
     25            void SetCalClkFuncGen(CalClkFuncGen *_ccf)
     26            {
     27              assert(0 != _ccf);
     28              
     29              ccf = _ccf;
     30            }
     31          protected:  

   \                                 In  segment CODE, align 2, keep-with-next
     32            void  TimeOutEvent(void)
   \                     ??TimeOutEvent:
     33            {
   \   00000000   93BA               ST      -Y, R27
   \   00000002   93AA               ST      -Y, R26
   \   00000004   01D8               MOVW    R27:R26, R17:R16
     34                if(0 != led)
   \   00000006   9618               ADIW    R27:R26, 8
   \   00000008   910D               LD      R16, X+
   \   0000000A   911D               LD      R17, X+
   \   0000000C   2F20               MOV     R18, R16
   \   0000000E   2B21               OR      R18, R17
   \   00000010   F019               BREQ    ??TimeOutEvent_2
     35                  led->Flip(0x01);
   \   00000012   E021               LDI     R18, 1
   \   00000014   ........           CALL    ??Flip
     36                
     37                if(0 != ccf){
   \                     ??TimeOutEvent_2:
   \   00000018   910D               LD      R16, X+
   \   0000001A   911C               LD      R17, X
   \   0000001C   2F20               MOV     R18, R16
   \   0000001E   2B21               OR      R18, R17
   \   00000020   F011               BREQ    ??TimeOutEvent_3
     38                  ccf->tm1s();
   \   00000022   ........           CALL    ??tm1s
     39                }
     40              
     41            }
   \                     ??TimeOutEvent_3:
   \   00000026   91A9               LD      R26, Y+
   \   00000028   91B9               LD      R27, Y+
   \   0000002A   9508               RET
     42          
     43          };
     44          

   \                                 In  segment CODE, align 2, keep-with-next
     45          class myTimer500ms : public ITimerEvent
   \   __nearfunc __version_3 myTimer500ms::~myTimer500ms()
   \                     `?~myTimer500ms`:
   \   00000000   2F40               MOV     R20, R16
   \   00000002   2B41               OR      R20, R17
   \   00000004   F021               BREQ    `?~myTimer500ms_1`
   \   00000006   FF20               SBRS    R18, 0
   \   00000008   C002               RJMP    `?~myTimer500ms_1`
   \   0000000A   ........           CALL    `??operator delete`
   \                     `?~myTimer500ms_1`:
   \   0000000E   9508               RET
     46          {
     47            Led          * led;
     48            CalClkFuncGen * ccf;
     49          
     50          public:
     51            myTimer500ms(void)
     52              :ITimerEvent(0,500) // 500ms
     53            {
     54              
     55            }
     56            void SetLed(Led * _led)
     57            {
     58              led = _led;
     59            }
     60            
     61            void SetCalClkFuncGen(CalClkFuncGen *_ccf)
     62            {
     63              assert(0 != _ccf);
     64              
     65              ccf = _ccf;
     66            }
     67          protected:  

   \                                 In  segment CODE, align 2, keep-with-next
     68            void  TimeOutEvent(void)
   \                     ??TimeOutEvent_1:
     69            {
   \   00000000   93BA               ST      -Y, R27
   \   00000002   93AA               ST      -Y, R26
   \   00000004   01D8               MOVW    R27:R26, R17:R16
     70                if(0 != led)
   \   00000006   9618               ADIW    R27:R26, 8
   \   00000008   910D               LD      R16, X+
   \   0000000A   911D               LD      R17, X+
   \   0000000C   2F20               MOV     R18, R16
   \   0000000E   2B21               OR      R18, R17
   \   00000010   F019               BREQ    ??TimeOutEvent_4
     71                  led->Flip(0x02);
   \   00000012   E022               LDI     R18, 2
   \   00000014   ........           CALL    ??Flip
     72                
     73                if(0 != ccf){
   \                     ??TimeOutEvent_4:
   \   00000018   910D               LD      R16, X+
   \   0000001A   911C               LD      R17, X
   \   0000001C   2F20               MOV     R18, R16
   \   0000001E   2B21               OR      R18, R17
   \   00000020   F011               BREQ    ??TimeOutEvent_5
     74                  ccf->tm500ms();
   \   00000022   ........           CALL    ??tm500ms
     75                }
     76              
     77            }
   \                     ??TimeOutEvent_5:
   \   00000026   91A9               LD      R26, Y+
   \   00000028   91B9               LD      R27, Y+
   \   0000002A   9508               RET
     78          
     79          };

   \                                 In  segment CODE, align 2, keep-with-next
     80          class mySWEvent:public DInEvent
   \   __nearfunc __version_3 mySWEvent::~mySWEvent()
   \                     `?~mySWEvent`:
   \   00000000   2F40               MOV     R20, R16
   \   00000002   2B41               OR      R20, R17
   \   00000004   F021               BREQ    `?~mySWEvent_1`
   \   00000006   FF20               SBRS    R18, 0
   \   00000008   C002               RJMP    `?~mySWEvent_1`
   \   0000000A   ........           CALL    `??operator delete`
   \                     `?~mySWEvent_1`:
   \   0000000E   9508               RET
     81          {
     82             Led    * led;
     83             CalClkFuncGen *ccf;
     84          
     85          public:
     86            void SetLed(Led * _led)
     87            {
     88              led = _led;
     89            } 
     90            
     91            void SetCalClkFuncGen(CalClkFuncGen *_ccf)
     92            {
     93              assert(0 != _ccf);
     94              
     95              ccf = _ccf;
     96            }  
     97          protected:

   \                                 In  segment CODE, align 2, keep-with-next
     98            void Changed(const EDGE _edge)
   \                     ??Changed:
     99            {
    100              
    101              if(DInEvent::RISING == _edge)
   \   00000000   2322               TST     R18
   \   00000002   F441               BRNE    ??Changed_1
    102              {
    103                if(0 != led){
    104          //        led->Blink(1);
    105                }
    106                if(0 != ccf){
   \   00000004   01F8               MOVW    R31:R30, R17:R16
   \   00000006   8104               LDD     R16, Z+4
   \   00000008   8115               LDD     R17, Z+5
   \   0000000A   2F20               MOV     R18, R16
   \   0000000C   2B21               OR      R18, R17
   \   0000000E   F011               BREQ    ??Changed_1
    107                  ccf->Switch();
   \   00000010   ........           CALL    ??Switch
    108                }      
    109                
    110              }
    111              
    112          
    113            }
   \                     ??Changed_1:
   \   00000014   9508               RET
    114            
    115          };
    116          class myAdcAdaptor: public AdcEvent{
    117            
    118            CalClkFuncGen *ccf;
    119          
    120          public:
    121            myAdcAdaptor(){}

   \                                 In  segment CODE, align 2, keep-with-next
    122            virtual ~myAdcAdaptor(){}
   \                     `?~myAdcAdaptor`:
   \   00000000   2F40               MOV     R20, R16
   \   00000002   2B41               OR      R20, R17
   \   00000004   F021               BREQ    `?~myAdcAdaptor_1`
   \   00000006   FF20               SBRS    R18, 0
   \   00000008   C002               RJMP    `?~myAdcAdaptor_1`
   \   0000000A   ........           CALL    `??operator delete`
   \                     `?~myAdcAdaptor_1`:
   \   0000000E   9508               RET
    123          public:
    124            void SetCalClkFuncGen(CalClkFuncGen *_ccf)
    125            {
    126              assert(0 != _ccf);
    127              
    128              ccf = _ccf;
    129            }
    130          protected:  

   \                                 In  segment CODE, align 2, keep-with-next
    131            void Converted( unsigned short _valueOfAdc)
   \                     ??Converted:
    132            {
    133                if(0 != ccf){
   \   00000000   01F8               MOVW    R31:R30, R17:R16
   \   00000002   8102               LDD     R16, Z+2
   \   00000004   8113               LDD     R17, Z+3
   \   00000006   2F40               MOV     R20, R16
   \   00000008   2B41               OR      R20, R17
   \   0000000A   F011               BREQ    ??Converted_1
    134                  ccf->InputAdc(_valueOfAdc);
   \   0000000C   ........           CALL    ??InputAdc
    135                }
    136              
    137            }
   \                     ??Converted_1:
   \   00000010   9508               RET
    138            
    139          };
    140          

   \                                 In  segment CODE, align 2, keep-with-next
    141          class myPwmAdaptor: public IPwmOut{
   \   __nearfunc __version_3 myPwmAdaptor::~myPwmAdaptor()
   \                     `?~myPwmAdaptor`:
   \   00000000   2F40               MOV     R20, R16
   \   00000002   2B41               OR      R20, R17
   \   00000004   F021               BREQ    `?~myPwmAdaptor_1`
   \   00000006   FF20               SBRS    R18, 0
   \   00000008   C002               RJMP    `?~myPwmAdaptor_1`
   \   0000000A   ........           CALL    `??operator delete`
   \                     `?~myPwmAdaptor_1`:
   \   0000000E   9508               RET
    142            Pwm * pwm;
    143          public:
    144           void SetPwm(Pwm * _pwm)
    145           {
    146             assert( 0 != _pwm);
    147             pwm = _pwm;
    148           }

   \                                 In  segment CODE, align 2, keep-with-next
    149            void SetDuty(unsigned short _du)
   \                     ??SetDuty:
    150            {
    151              if( 0 != pwm)
   \   00000000   01F8               MOVW    R31:R30, R17:R16
   \   00000002   8102               LDD     R16, Z+2
   \   00000004   8113               LDD     R17, Z+3
   \   00000006   2F40               MOV     R20, R16
   \   00000008   2B41               OR      R20, R17
   \   0000000A   F011               BREQ    ??SetDuty_2
    152              {
    153                pwm->SetDuty(_du);
   \   0000000C   ........           CALL    ??SetDuty_1
    154              }
    155            }
   \                     ??SetDuty_2:
   \   00000010   9508               RET
    156          };
    157          

   \                                 In  segment CODE, align 2, keep-with-next
    158          class mySerialEvent : public SerialEvent
   \   __nearfunc __version_3 mySerialEvent::~mySerialEvent()
   \                     `?~mySerialEvent`:
   \   00000000   2F40               MOV     R20, R16
   \   00000002   2B41               OR      R20, R17
   \   00000004   F021               BREQ    `?~mySerialEvent_1`
   \   00000006   FF20               SBRS    R18, 0
   \   00000008   C002               RJMP    `?~mySerialEvent_1`
   \   0000000A   ........           CALL    `??operator delete`
   \                     `?~mySerialEvent_1`:
   \   0000000E   9508               RET
    159          {
    160            CalClkFuncGen *ccf;
    161            

   \                                 In  segment CODE, align 2, keep-with-next
    162            void Receive( unsigned char _data ){
   \                     ??Receive:
   \   00000000   ........           CALL    ?PROLOGUE4_L09
   \   00000004   01D8               MOVW    R27:R26, R17:R16
   \   00000006   2F82               MOV     R24, R18
    163          
    164              sio->Write(_data);
   \   00000008   910D               LD      R16, X+
   \   0000000A   911C               LD      R17, X
   \   0000000C   9711               SBIW    R27:R26, 1
   \   0000000E   ........           CALL    ??Write_3
    165              if( '\r' == _data)// '\r' is 0x0d; 
   \   00000012   308D               CPI     R24, 13
   \   00000014   F439               BRNE    ??Receive_1
    166              {
    167                sio->Write("\n");
   \   00000016   ....               LDI     R18, LOW(`?<Constant "\\n">`)
   \   00000018   ....               LDI     R19, (`?<Constant "\\n">`) >> 8
   \   0000001A   910D               LD      R16, X+
   \   0000001C   911C               LD      R17, X
   \   0000001E   9711               SBIW    R27:R26, 1
   \   00000020   ........           CALL    ??Write_4
    168              }
    169              
    170                if(0 != ccf){
   \                     ??Receive_1:
   \   00000024   01FD               MOVW    R31:R30, R27:R26
   \   00000026   8104               LDD     R16, Z+4
   \   00000028   8115               LDD     R17, Z+5
   \   0000002A   2F20               MOV     R18, R16
   \   0000002C   2B21               OR      R18, R17
   \   0000002E   F019               BREQ    ??Receive_2
    171                  ccf->InputCh(_data); //echo back
   \   00000030   2F28               MOV     R18, R24
   \   00000032   ........           CALL    ??InputCh
    172                }
    173              
    174            }
   \                     ??Receive_2:
   \   00000036   E0E4               LDI     R30, 4
   \   00000038   ........           JMP     ?EPILOGUE_B4_L09
    175          
    176          public:
    177          
    178            void SetCalClkFuncGen(CalClkFuncGen *_ccf)
    179            {
    180              assert(0 != _ccf);
    181              
    182              ccf = _ccf;
    183            }  
    184          
    185            
    186          };

   \                                 In  segment CODE, align 2, keep-with-next
    187          class mySerialOutAdaptor: public IStringOut
   \   __nearfunc __version_3 mySerialOutAdaptor::~mySerialOutAdaptor()
   \                     `?~mySerialOutAdaptor`:
   \   00000000   2F40               MOV     R20, R16
   \   00000002   2B41               OR      R20, R17
   \   00000004   F021               BREQ    `?~mySerialOutAdaptor_1`
   \   00000006   FF20               SBRS    R18, 0
   \   00000008   C002               RJMP    `?~mySerialOutAdaptor_1`
   \   0000000A   ........           CALL    `??operator delete`
   \                     `?~mySerialOutAdaptor_1`:
   \   0000000E   9508               RET
    188          {
    189            SerialIO      * serial;
    190          public:
    191            
    192            void SetSerial(SerialIO * _serial)
    193            {
    194              assert( 0 != _serial);
    195              serial = _serial;
    196            }
    197            

   \                                 In  segment CODE, align 2, keep-with-next
    198            void Write(char * _str)
   \                     ??Write:
    199            {
    200              assert(0 != _str);
    201              
    202              if( 0 != serial)
   \   00000000   01F8               MOVW    R31:R30, R17:R16
   \   00000002   8102               LDD     R16, Z+2
   \   00000004   8113               LDD     R17, Z+3
   \   00000006   2F40               MOV     R20, R16
   \   00000008   2B41               OR      R20, R17
   \   0000000A   F011               BREQ    ??Write_5
    203              {
    204                serial->Write(_str);
   \   0000000C   ........           CALL    ??Write_4
    205              }
    206              
    207            }
   \                     ??Write_5:
   \   00000010   9508               RET
    208            
    209          };
    210          
    211          class mylcdAdaptor:public IStringOut
    212          {
    213            Clcd        *lcd;
    214            unsigned char line;
    215          public:
    216            mylcdAdaptor(){}

   \                                 In  segment CODE, align 2, keep-with-next
    217            virtual ~mylcdAdaptor(){}
   \                     `?~mylcdAdaptor`:
   \   00000000   2F40               MOV     R20, R16
   \   00000002   2B41               OR      R20, R17
   \   00000004   F021               BREQ    `?~mylcdAdaptor_1`
   \   00000006   FF20               SBRS    R18, 0
   \   00000008   C002               RJMP    `?~mylcdAdaptor_1`
   \   0000000A   ........           CALL    `??operator delete`
   \                     `?~mylcdAdaptor_1`:
   \   0000000E   9508               RET
    218            
    219            
    220            void SetClcd(Clcd  *_lcd,unsigned char _line)
    221            {
    222              assert(0 != _lcd);
    223              lcd = _lcd;
    224              line = _line;
    225            } 
    226            

   \                                 In  segment CODE, align 2, keep-with-next
    227            void Write(char * _str)
   \                     ??Write_1:
    228            {
    229              if(0 != lcd)
   \   00000000   01F8               MOVW    R31:R30, R17:R16
   \   00000002   8162               LDD     R22, Z+2
   \   00000004   8173               LDD     R23, Z+3
   \   00000006   2F46               MOV     R20, R22
   \   00000008   2B47               OR      R20, R23
   \   0000000A   F029               BREQ    ??Write_7
    230              {
    231                lcd->Write(line,_str);
   \   0000000C   01A9               MOVW    R21:R20, R19:R18
   \   0000000E   8124               LDD     R18, Z+4
   \   00000010   018B               MOVW    R17:R16, R23:R22
   \   00000012   ........           CALL    ??Write_6
    232              }
    233            }
   \                     ??Write_7:
   \   00000016   9508               RET
    234          };
    235          
    236          /////////////////////////////

   \                                 In  segment CODE, align 2, keep-with-next
   \   static __intrinsic __nearfunc __version_3 void __sti__routine()
   \                     ??__sti__routine:
   \   00000000   93BA               ST      -Y, R27
   \   00000002   93AA               ST      -Y, R26
    237          Term_Project_s myApp;
   \   00000004   ....               LDI     R26, LOW((mytimer_1sec + 46))
   \   00000006   ....               LDI     R27, HIGH((mytimer_1sec + 46))
   \   00000008   ....               LDI     R16, ((mytimer_1sec + 58) & 0xff) & 0xFF
   \   0000000A   ....               LDI     R17, (((mytimer_1sec + 58) >> 8) & 0xff) & 0xFF
   \   0000000C   ....               RCALL   ??Term_Project_s
   \   0000000E   ....               LDI     R16, LOW(?_0)
   \   00000010   ....               LDI     R17, (?_0) >> 8
   \   00000012   ....               RCALL   ?Subroutine2
    238          ////////////////////////////
    239          
    240          CalClkFuncGen    ccf;
   \                     ??CrossCallReturnLabel_9:
   \   00000014   ....               RCALL   ?Subroutine0
   \                     ??CrossCallReturnLabel_0:
   \   00000016   ........           CALL    ??CalClkFuncGen
   \   0000001A   ....               LDI     R16, LOW((?_0 + 6))
   \   0000001C   ....               LDI     R17, HIGH((?_0 + 6))
   \   0000001E   ....               RCALL   ?Subroutine2
    241          myAdcAdaptor  myadcEvent;
   \                     ??CrossCallReturnLabel_10:
   \   00000020   ....               LDI     R16, LOW((??__vtbl + 12))
   \   00000022   ....               LDI     R17, HIGH((??__vtbl + 12))
   \   00000024   ....               RCALL   ?Subroutine12
   \                     ??CrossCallReturnLabel_36:
   \   00000026   9613               ADIW    R27:R26, 3
   \   00000028   ....               LDI     R16, LOW((?_0 + 12))
   \   0000002A   ....               LDI     R17, HIGH((?_0 + 12))
   \   0000002C   ....               RCALL   ?Subroutine2
    242          myPwmAdaptor  myPwmadp;
   \                     ??CrossCallReturnLabel_11:
   \   0000002E   ....               LDI     R16, LOW((??__vtbl + 16))
   \   00000030   ....               LDI     R17, HIGH((??__vtbl + 16))
   \   00000032   ....               RCALL   ?Subroutine12
   \                     ??CrossCallReturnLabel_37:
   \   00000034   971F               SBIW    R27:R26, 15
   \   00000036   ....               LDI     R16, LOW((?_0 + 18))
   \   00000038   ....               LDI     R17, HIGH((?_0 + 18))
   \   0000003A   ....               RCALL   ?Subroutine1
   \                     ??CrossCallReturnLabel_34:
   \   0000003C   9614               ADIW    R27:R26, 4
    243          mylcdAdaptor   mylcdline1,mylcdline2;
   \   0000003E   ....               LDI     R16, LOW((?_0 + 24))
   \   00000040   ....               LDI     R17, HIGH((?_0 + 24))
   \   00000042   ....               RCALL   ?Subroutine1
   \                     ??CrossCallReturnLabel_35:
   \   00000044   961C               ADIW    R27:R26, 12
   \   00000046   ....               LDI     R16, LOW((?_0 + 30))
   \   00000048   ....               LDI     R17, HIGH((?_0 + 30))
   \   0000004A   ....               RCALL   ?Subroutine2
    244          mySerialOutAdaptor myserialadp;
   \                     ??CrossCallReturnLabel_12:
   \   0000004C   ....               LDI     R16, LOW((??__vtbl + 24))
   \   0000004E   ....               LDI     R17, HIGH((??__vtbl + 24))
   \   00000050   ....               RCALL   ?Subroutine12
   \                     ??CrossCallReturnLabel_38:
   \   00000052   975D               SBIW    R27:R26, 29
   \   00000054   ....               LDI     R16, LOW((?_0 + 36))
   \   00000056   ....               LDI     R17, HIGH((?_0 + 36))
   \   00000058   ....               RCALL   ?Subroutine2
    245          mySerialEvent       myserialEvent;
   \                     ??CrossCallReturnLabel_13:
   \   0000005A   ....               LDI     R16, LOW((??__vtbl + 20))
   \   0000005C   ....               LDI     R17, HIGH((??__vtbl + 20))
   \   0000005E   ....               RCALL   ?Subroutine12
   \                     ??CrossCallReturnLabel_39:
   \   00000060   975A               SBIW    R27:R26, 26
   \   00000062   ....               LDI     R16, LOW((?_0 + 42))
   \   00000064   ....               LDI     R17, HIGH((?_0 + 42))
   \   00000066   ....               RCALL   ?Subroutine2
    246          myTimer1s     mytimer_1sec;
   \                     ??CrossCallReturnLabel_14:
   \   00000068   E000               LDI     R16, 0
   \   0000006A   9300....           STS     mytimer_1sec, R16
   \   0000006E   EE08               LDI     R16, 232
   \   00000070   E013               LDI     R17, 3
   \   00000072   ....               RCALL   ?Subroutine3
   \                     ??CrossCallReturnLabel_18:
   \   00000074   9300....           STS     (mytimer_1sec + 5), R16
   \   00000078   ....               LDI     R16, LOW(??__vtbl)
   \   0000007A   ....               LDI     R17, (??__vtbl) >> 8
   \   0000007C   ....               RCALL   ?Subroutine12
   \                     ??CrossCallReturnLabel_40:
   \   0000007E   9616               ADIW    R27:R26, 6
   \   00000080   ....               LDI     R16, LOW((?_0 + 48))
   \   00000082   ....               LDI     R17, HIGH((?_0 + 48))
   \   00000084   ....               RCALL   ?Subroutine2
    247          myTimer500ms  mytimer_500ms;
   \                     ??CrossCallReturnLabel_15:
   \   00000086   E000               LDI     R16, 0
   \   00000088   9300....           STS     (mytimer_1sec + 12), R16
   \   0000008C   EF04               LDI     R16, 244
   \   0000008E   E011               LDI     R17, 1
   \   00000090   ....               RCALL   ?Subroutine3
   \                     ??CrossCallReturnLabel_19:
   \   00000092   9300....           STS     (mytimer_1sec + 17), R16
   \   00000096   ....               LDI     R16, LOW((??__vtbl + 4))
   \   00000098   ....               LDI     R17, HIGH((??__vtbl + 4))
   \   0000009A   ....               RCALL   ?Subroutine12
   \                     ??CrossCallReturnLabel_41:
   \   0000009C   961B               ADIW    R27:R26, 11
   \   0000009E   ....               LDI     R16, LOW((?_0 + 54))
   \   000000A0   ....               LDI     R17, HIGH((?_0 + 54))
   \   000000A2   ....               RCALL   ?Subroutine2
    248          
    249          mySWEvent   mySW;
   \                     ??CrossCallReturnLabel_16:
   \   000000A4   ....               LDI     R16, LOW((??__vtbl + 8))
   \   000000A6   ....               LDI     R17, HIGH((??__vtbl + 8))
   \   000000A8   ....               RCALL   ?Subroutine12
   \                     ??CrossCallReturnLabel_42:
   \   000000AA   ....               LDI     R16, LOW((?_0 + 60))
   \   000000AC   ....               LDI     R17, HIGH((?_0 + 60))
   \   000000AE   ....               RCALL   ?Subroutine2
   \                     ??CrossCallReturnLabel_17:
   \   000000B0                      REQUIRE ?Subroutine11
   \   000000B0                      ;               // Fall through to label ?Subroutine11

   \                                 In  segment CODE, align 2, keep-with-next
   \                     `?<Unnamed 0>`:
   \   00000000   E022               LDI     R18, 2
   \   00000002   E030               LDI     R19, 0
   \   00000004   ........           JMP     `?~Term_Project_s`

   \                                 In  segment CODE, align 2, keep-with-next
   \                     `?<Unnamed 1>`:
   \   00000000   E022               LDI     R18, 2
   \   00000002   E030               LDI     R19, 0
   \   00000004   ........           JMP     `?~CalClkFuncGen`

   \                                 In  segment NEAR_I, align 1, keep-with-next
   \   00000000                      REQUIRE `?<Segment init: NEAR_I>`
   \                     ?_0:
   \   00000000                      DS8 6
   \   00000006                      REQUIRE `?<Initializer for >`
   \   00000006                      DS8 6
   \   0000000C                      REQUIRE `?<Initializer for >_1`
   \   0000000C                      DS8 6
   \   00000012                      REQUIRE `?<Initializer for >_2`
   \   00000012                      DS8 6
   \   00000018                      REQUIRE `?<Initializer for >_3`
   \   00000018                      DS8 6
   \   0000001E                      REQUIRE `?<Initializer for >_4`
   \   0000001E                      DS8 6
   \   00000024                      REQUIRE `?<Initializer for >_5`
   \   00000024                      DS8 6
   \   0000002A                      REQUIRE `?<Initializer for >_6`
   \   0000002A                      DS8 6
   \   00000030                      REQUIRE `?<Initializer for >_7`
   \   00000030                      DS8 6
   \   00000036                      REQUIRE `?<Initializer for >_8`
   \   00000036                      DS8 6
   \   0000003C                      REQUIRE `?<Initializer for >_9`
   \   0000003C                      DS8 6
   \   00000042                      REQUIRE `?<Initializer for >_10`

   \                                 In  segment NEAR_Z, align 1, keep-with-next
   \   00000000                      REQUIRE `?<Segment init: NEAR_Z>`
   \                     mytimer_1sec:
   \   00000000                      DS8 12
   \                     mytimer_500ms:
   \   0000000C                      DS8 12
   \                     myserialEvent:
   \   00000018                      DS8 6
   \                     mySW:
   \   0000001E                      DS8 6
   \                     mylcdline1:
   \   00000024                      DS8 5
   \                     mylcdline2:
   \   00000029                      DS8 5
   \                     myadcEvent:
   \   0000002E                      DS8 4
   \                     myPwmadp:
   \   00000032                      DS8 4
   \                     myserialadp:
   \   00000036                      DS8 4
   \                     myApp:
   \   0000003A                      DS8 20
   \                     ccf:
   \   0000004E                      DS8 30
    250          
    251          

   \                                 In  segment CODE, align 2, keep-with-next
   \                     ?Subroutine11:
   \   00000000   91A9               LD      R26, Y+
   \   00000002   91B9               LD      R27, Y+
   \   00000004   9508               RET

   \                                 In  segment CODE, align 2, keep-with-next
   \                     ?Subroutine12:
   \   00000000   930D               ST      X+, R16
   \   00000002   931C               ST      X, R17
   \   00000004   9508               RET

   \                                 In  segment CODE, align 2, keep-with-next
    252          Term_Project_s::Term_Project_s()
   \                     ??Term_Project_s:
   \   00000000   93BA               ST      -Y, R27
   \   00000002   93AA               ST      -Y, R26
   \   00000004   01D8               MOVW    R27:R26, R17:R16
    253          {
   \   00000006   ........           CALL    ??SystemManager
   \   0000000A   ....               LDI     R16, LOW(??__vtbl_8)
   \   0000000C   ....               LDI     R17, (??__vtbl_8) >> 8
   \   0000000E   9612               ADIW    R27:R26, 2
   \   00000010   ....               RCALL   ?Subroutine12
   \                     ??CrossCallReturnLabel_43:
   \   00000012   9713               SBIW    R27:R26, 3
    254            
    255          }
   \   00000014   018D               MOVW    R17:R16, R27:R26
   \   00000016   ....               RJMP    ?Subroutine11
    256             
    257          #define LED_GREEN8B BCComponentManager::LED0
    258          
    259          //Init() 함수 호출 시점에서 하드웨어 자원을 사용가능

   \                                 In  segment CODE, align 2, keep-with-next
    260          void Term_Project_s::Init(void)
   \                     ??Init:
    261          {
   \   00000000   ........           CALL    ?PROLOGUE4_L09
   \   00000004   01D8               MOVW    R27:R26, R17:R16
    262            driver = GetDriverFactory();
   \   00000006   ........           CALL    ??GetDriverFactory
   \   0000000A   01FD               MOVW    R31:R30, R27:R26
   \   0000000C   8306               STD     Z+6, R16
   \   0000000E   8317               STD     Z+7, R17
    263            tm = GetBCComponentManager()->CreateTimer();
   \   00000010   ....               RCALL   ?Subroutine5
   \                     ??CrossCallReturnLabel_25:
   \   00000012   ........           CALL    ??CreateTimer
   \   00000016   01FD               MOVW    R31:R30, R27:R26
   \   00000018   8304               STD     Z+4, R16
   \   0000001A   8315               STD     Z+5, R17
    264            greenLed  = GetBCComponentManager()->CreateLed(LED_GREEN8B);
   \   0000001C   ....               RCALL   ?Subroutine5
   \                     ??CrossCallReturnLabel_24:
   \   0000001E   E020               LDI     R18, 0
   \   00000020   ........           CALL    ??CreateLed
   \   00000024   01FD               MOVW    R31:R30, R27:R26
   \   00000026   8704               STD     Z+12, R16
   \   00000028   8715               STD     Z+13, R17
    265            swDin   =  GetBCComponentManager()->CreateDIn();
   \   0000002A   ....               RCALL   ?Subroutine5
   \                     ??CrossCallReturnLabel_23:
   \   0000002C   ........           CALL    ??CreateDIn
   \   00000030   01FD               MOVW    R31:R30, R27:R26
   \   00000032   8B02               STD     Z+18, R16
   \   00000034   8B13               STD     Z+19, R17
    266            serial = GetBCComponentManager()->CreateSerialIO();
   \   00000036   ....               RCALL   ?Subroutine5
   \                     ??CrossCallReturnLabel_22:
   \   00000038   E020               LDI     R18, 0
   \   0000003A   ........           CALL    ??CreateSerialIO
   \   0000003E   01FD               MOVW    R31:R30, R27:R26
   \   00000040   8700               STD     Z+8, R16
   \   00000042   8711               STD     Z+9, R17
    267            adc = GetBCComponentManager()->CreateAdc();
   \   00000044   ....               RCALL   ?Subroutine5
   \                     ??CrossCallReturnLabel_21:
   \   00000046   ........           CALL    ??CreateAdc
   \   0000004A   01FD               MOVW    R31:R30, R27:R26
   \   0000004C   8706               STD     Z+14, R16
   \   0000004E   8717               STD     Z+15, R17
    268            pwm = GetBCComponentManager()->CreatePwm();
   \   00000050   ....               RCALL   ?Subroutine5
   \                     ??CrossCallReturnLabel_20:
   \   00000052   ........           CALL    ??CreatePwm
   \   00000056   01FD               MOVW    R31:R30, R27:R26
   \   00000058   8B00               STD     Z+16, R16
   \   0000005A   8B11               STD     Z+17, R17
    269            lcd = driver->CreateClcd();
   \   0000005C   9616               ADIW    R27:R26, 6
   \   0000005E   91ED               LD      R30, X+
   \   00000060   91FC               LD      R31, X
   \   00000062   9717               SBIW    R27:R26, 7
   \   00000064   018F               MOVW    R17:R16, R31:R30
   \   00000066   8120               LD      R18, Z
   \   00000068   81F1               LDD     R31, Z+1
   \   0000006A   2FE2               MOV     R30, R18
   \   0000006C   963C               ADIW    R31:R30, 12
   \   0000006E   9125               LPM     R18, Z+
   \   00000070   91F4               LPM     R31, Z
   \   00000072   2FE2               MOV     R30, R18
   \   00000074   9509               ICALL
   \   00000076   01FD               MOVW    R31:R30, R27:R26
   \   00000078   8702               STD     Z+10, R16
   \   0000007A   8713               STD     Z+11, R17
    270            
    271          ///////////////////////////////////////////////////////////////////////////////   
    272          
    273            mytimer_1sec.SetLed(greenLed);
   \   0000007C   ....               LDI     R24, LOW(mytimer_1sec)
   \   0000007E   ....               LDI     R25, (mytimer_1sec) >> 8
   \   00000080   ....               RCALL   ??Subroutine14_0
   \                     ??CrossCallReturnLabel_46:
   \   00000082   8700               STD     Z+8, R16
   \   00000084   8711               STD     Z+9, R17
    274            mytimer_1sec.SetCalClkFuncGen(&ccf);
   \   00000086   ....               RCALL   ?Subroutine0
   \                     ??CrossCallReturnLabel_1:
   \   00000088   8702               STD     Z+10, R16
   \   0000008A   8713               STD     Z+11, R17
    275            tm->AddEvent(&mytimer_1sec);
   \   0000008C   019C               MOVW    R19:R18, R25:R24
   \   0000008E   ....               RCALL   ?Subroutine6
   \                     ??CrossCallReturnLabel_26:
   \   00000090   9300....           STS     (mytimer_1sec + 5), R16
    276            mytimer_1sec.Resume();
    277            
    278            
    279            mytimer_500ms.SetLed(greenLed);
   \   00000094   ....               RCALL   ?Subroutine9
   \                     ??CrossCallReturnLabel_47:
   \   00000096   8B04               STD     Z+20, R16
   \   00000098   8B15               STD     Z+21, R17
    280            mytimer_500ms.SetCalClkFuncGen(&ccf);
   \   0000009A   ....               RCALL   ?Subroutine0
   \                     ??CrossCallReturnLabel_2:
   \   0000009C   8B06               STD     Z+22, R16
   \   0000009E   8B17               STD     Z+23, R17
    281            tm->AddEvent(&mytimer_500ms);
   \   000000A0   ....               LDI     R18, ((mytimer_1sec + 12) & 0xff) & 0xFF
   \   000000A2   ....               LDI     R19, (((mytimer_1sec + 12) >> 8) & 0xff) & 0xFF
   \   000000A4   ....               RCALL   ?Subroutine6
   \                     ??CrossCallReturnLabel_27:
   \   000000A6   9300....           STS     (mytimer_1sec + 17), R16
    282            mytimer_500ms.Resume();
    283            
    284            mySW.SetLed(greenLed);
   \   000000AA   ....               RCALL   ?Subroutine9
   \                     ??CrossCallReturnLabel_48:
   \   000000AC   A300               STD     Z+32, R16
   \   000000AE   A311               STD     Z+33, R17
    285            mySW.SetCalClkFuncGen(&ccf);
   \   000000B0   ....               RCALL   ?Subroutine0
   \                     ??CrossCallReturnLabel_3:
   \   000000B2   A302               STD     Z+34, R16
   \   000000B4   A313               STD     Z+35, R17
    286            swDin->SetEvent(mySW);
   \   000000B6   ....               LDI     R18, ((mytimer_1sec + 30) & 0xff) & 0xFF
   \   000000B8   ....               LDI     R19, (((mytimer_1sec + 30) >> 8) & 0xff) & 0xFF
   \   000000BA   01FD               MOVW    R31:R30, R27:R26
   \   000000BC   8902               LDD     R16, Z+18
   \   000000BE   8913               LDD     R17, Z+19
   \   000000C0   ........           CALL    ??SetEvent
    287            
    288            mylcdline1.SetClcd(lcd,Clcd::LINE1);
   \   000000C4   ....               RCALL   ?Subroutine10
   \                     ??CrossCallReturnLabel_44:
   \   000000C6   A306               STD     Z+38, R16
   \   000000C8   A317               STD     Z+39, R17
   \   000000CA   E800               LDI     R16, 128
   \   000000CC   A700               STD     Z+40, R16
    289            mylcdline2.SetClcd(lcd,Clcd::LINE2);
   \   000000CE   ....               RCALL   ?Subroutine10
   \                     ??CrossCallReturnLabel_45:
   \   000000D0   A703               STD     Z+43, R16
   \   000000D2   A714               STD     Z+44, R17
   \   000000D4   EC00               LDI     R16, 192
   \   000000D6   A705               STD     Z+45, R16
    290            
    291            myadcEvent.SetCalClkFuncGen(&ccf);
   \   000000D8   ....               RCALL   ?Subroutine0
   \                     ??CrossCallReturnLabel_4:
   \   000000DA   AB00               STD     Z+48, R16
   \   000000DC   AB11               STD     Z+49, R17
    292            myserialadp.SetSerial(serial);
   \   000000DE   ....               RCALL   ?Subroutine7
   \                     ??CrossCallReturnLabel_28:
   \   000000E0   01FC               MOVW    R31:R30, R25:R24
   \   000000E2   AF00               STD     Z+56, R16
   \   000000E4   AF11               STD     Z+57, R17
    293            
    294            myserialEvent.SetCalClkFuncGen(&ccf);
   \   000000E6   ....               RCALL   ?Subroutine0
   \                     ??CrossCallReturnLabel_5:
   \   000000E8   8F04               STD     Z+28, R16
   \   000000EA   8F15               STD     Z+29, R17
    295            serial->SetEvent(myserialEvent);
   \   000000EC   ....               LDI     R18, ((mytimer_1sec + 24) & 0xff) & 0xFF
   \   000000EE   ....               LDI     R19, (((mytimer_1sec + 24) >> 8) & 0xff) & 0xFF
   \   000000F0   ....               RCALL   ?Subroutine7
   \                     ??CrossCallReturnLabel_29:
   \   000000F2   ........           CALL    ??SetEvent_1
    296            
    297            adc->SetFrequency(100);// 100Hz
   \   000000F6   E624               LDI     R18, 100
   \   000000F8   ....               RCALL   ?Subroutine8
   \                     ??CrossCallReturnLabel_31:
   \   000000FA   ........           CALL    ??SetFrequency
    298            adc->Addevent(&myadcEvent);
   \   000000FE   ....               LDI     R18, ((mytimer_1sec + 46) & 0xff) & 0xFF
   \   00000100   ....               LDI     R19, (((mytimer_1sec + 46) >> 8) & 0xff) & 0xFF
   \   00000102   ....               RCALL   ?Subroutine8
   \                     ??CrossCallReturnLabel_32:
   \   00000104   ........           CALL    ??Addevent
    299            adc->Run();
   \   00000108   ....               RCALL   ?Subroutine8
   \                     ??CrossCallReturnLabel_33:
   \   0000010A   ........           CALL    ??Run
    300            
    301            myPwmadp.SetPwm(pwm);
   \   0000010E   01FD               MOVW    R31:R30, R27:R26
   \   00000110   8900               LDD     R16, Z+16
   \   00000112   8911               LDD     R17, Z+17
   \   00000114   01FC               MOVW    R31:R30, R25:R24
   \   00000116   AB04               STD     Z+52, R16
   \   00000118   AB15               STD     Z+53, R17
    302            ccf.SetIStringOut(&mylcdline1,&mylcdline2,&myserialadp);
   \   0000011A   ....               LDI     R22, ((mytimer_1sec + 54) & 0xff) & 0xFF
   \   0000011C   ....               LDI     R23, (((mytimer_1sec + 54) >> 8) & 0xff) & 0xFF
   \   0000011E   ....               LDI     R20, ((mytimer_1sec + 41) & 0xff) & 0xFF
   \   00000120   ....               LDI     R21, (((mytimer_1sec + 41) >> 8) & 0xff) & 0xFF
   \   00000122   ....               LDI     R18, ((mytimer_1sec + 36) & 0xff) & 0xFF
   \   00000124   ....               LDI     R19, (((mytimer_1sec + 36) >> 8) & 0xff) & 0xFF
   \   00000126   ....               RCALL   ?Subroutine0
   \                     ??CrossCallReturnLabel_6:
   \   00000128   ........           CALL    ??SetIStringOut
    303            ccf.SetPwm(&myPwmadp);
   \   0000012C   ....               LDI     R18, ((mytimer_1sec + 50) & 0xff) & 0xFF
   \   0000012E   ....               LDI     R19, (((mytimer_1sec + 50) >> 8) & 0xff) & 0xFF
   \   00000130   ....               RCALL   ?Subroutine0
   \                     ??CrossCallReturnLabel_7:
   \   00000132   ........           CALL    ??SetPwm
    304            
    305            serial->Write(gnu_lic);
   \   00000136   ....               LDI     R18, LOW(gnu_lic)
   \   00000138   ....               LDI     R19, (gnu_lic) >> 8
   \   0000013A   ....               RCALL   ?Subroutine7
   \                     ??CrossCallReturnLabel_30:
   \   0000013C   ........           CALL    ??Write_2
    306            
    307            ccf.Init();
   \   00000140   ....               RCALL   ?Subroutine0
   \                     ??CrossCallReturnLabel_8:
   \   00000142   ........           CALL    ??Init_1
    308          
    309            
    310          }
   \   00000146   E0E4               LDI     R30, 4
   \   00000148   ........           JMP     ?EPILOGUE_B4_L09

   \                                 In  segment CODE, align 2, keep-with-next
   \                     ?Subroutine8:
   \   00000000   01FD               MOVW    R31:R30, R27:R26
   \   00000002   8506               LDD     R16, Z+14
   \   00000004   8517               LDD     R17, Z+15
   \   00000006   9508               RET

   \                                 In  segment CODE, align 2, keep-with-next
   \                     ?Subroutine7:
   \   00000000   01FD               MOVW    R31:R30, R27:R26
   \   00000002   8500               LDD     R16, Z+8
   \   00000004   8511               LDD     R17, Z+9
   \   00000006   9508               RET

   \                                 In  segment CODE, align 2, keep-with-next
   \                     ?Subroutine6:
   \   00000000   01FD               MOVW    R31:R30, R27:R26
   \   00000002   8104               LDD     R16, Z+4
   \   00000004   8115               LDD     R17, Z+5
   \   00000006   ........           CALL    ??AddEvent
   \   0000000A   E001               LDI     R16, 1
   \   0000000C   9508               RET

   \                                 In  segment CODE, align 2, keep-with-next
   \                     ?Subroutine5:
   \   00000000   ........           JMP     ??GetBCComponentManager

   \                                 In  segment CODE, align 2, keep-with-next
   \                     ?Subroutine0:
   \   00000000   ....               LDI     R16, ((mytimer_1sec + 78) & 0xff) & 0xFF
   \   00000002   ....               LDI     R17, (((mytimer_1sec + 78) >> 8) & 0xff) & 0xFF
   \   00000004   9508               RET

   \                                 In  segment NEAR_ID, align 1, keep-with-next
   \                     `?<Initializer for <Constant "\\n">>`:
   \   00000000   000A               DC8 "\012"

   \                                 In  segment NEAR_ID, align 1, keep-with-next
   \                     `?<Initializer for >`:
   \   00000000   ............       DC16 ?_1, myApp, `?<Unnamed 0>`/2
   \                     `?<Initializer for >_1`:
   \   00000006   ............       DC16 ?_3, ccf, `?<Unnamed 1>`/2
   \                     `?<Initializer for >_2`:
   \   0000000C   ............       DC16 ?_5, myadcEvent, `?<Unnamed 2>`/2
   \                     `?<Initializer for >_3`:
   \   00000012   ............       DC16 ?_7, myPwmadp, `?<Unnamed 3>`/2
   \                     `?<Initializer for >_4`:
   \   00000018   ............       DC16 ?_9, mylcdline1, `?<Unnamed 4>`/2
   \                     `?<Initializer for >_5`:
   \   0000001E   ............       DC16 ?_11, mylcdline2, `?<Unnamed 4>`/2
   \                     `?<Initializer for >_6`:
   \   00000024   ............       DC16 ?_13, myserialadp, `?<Unnamed 5>`/2
   \                     `?<Initializer for >_7`:
   \   0000002A   ............       DC16 ?_15, myserialEvent, `?<Unnamed 6>`/2
   \                     `?<Initializer for >_8`:
   \   00000030   ............       DC16 ?_17, mytimer_1sec, `?<Unnamed 7>`/2
   \                     `?<Initializer for >_9`:
   \   00000036   ............       DC16 ?_19, mytimer_500ms, `?<Unnamed 8>`/2
   \                     `?<Initializer for >_10`:
   \   0000003C   ............       DC16 ?_21, mySW, `?<Unnamed 9>`/2

   \                                 In  segment DIFUNCT, align 1, keep-with-next, root
   \   00000000                      REQUIRE ?call_ctors
   \   00000000   ....               DW      ??__sti__routine/2

   \                                 In  segment NEAR_I, align 1, keep-with-next
   \   00000000                      REQUIRE `?<Segment init: NEAR_I>`
   \                     `?<Constant "\\n">`:
   \   00000000                      DS8 2
   \   00000002                      REQUIRE `?<Initializer for <Constant "\\n">>`

   \                                 In  segment CODE, align 2, keep-with-next
   \   __nearfunc __version_3 Term_Project_s *Term_Project_s::new Term_Project_s()
   \                     `??new Term_Project_s`:
   \   00000000   E104               LDI     R16, 20
   \   00000002   E010               LDI     R17, 0
   \   00000004   ........           CALL    `??operator new`
   \   00000008   2F20               MOV     R18, R16
   \   0000000A   2B21               OR      R18, R17
   \   0000000C   F009               BREQ    `??new Term_Project_s_1`
   \   0000000E   ....               RJMP    ??Term_Project_s
   \                     `??new Term_Project_s_1`:
   \   00000010   E000               LDI     R16, 0
   \   00000012   E010               LDI     R17, 0
   \   00000014   9508               RET

   \                                 In  segment CODE, align 2, keep-with-next
   \                     ?Subroutine3:
   \   00000000   930D               ST      X+, R16
   \   00000002   931C               ST      X, R17
   \   00000004   9614               ADIW    R27:R26, 4
   \   00000006   E000               LDI     R16, 0
   \   00000008   9508               RET

   \                                 In  segment CODE, align 2, keep-with-next
   \                     ?Subroutine2:
   \   00000000   ........           JMP     __record_needed_destruction

   \                                 In  segment CODE, align 2, keep-with-next
   \                     ?Subroutine1:
   \   00000000   ........           CALL    __record_needed_destruction
   \   00000004   ....               LDI     R16, LOW((??__vtbl + 28))
   \   00000006   ....               LDI     R17, HIGH((??__vtbl + 28))
   \   00000008                      REQUIRE ?Subroutine12
   \   00000008                      ;               // Fall through to label ?Subroutine12

   \                                 In  segment CODE, align 2, keep-with-next
   \                     `?<Unnamed 2>`:
   \   00000000   9508               RET

   \                                 In  segment CODE, align 2, keep-with-next
   \                     `?<Unnamed 3>`:
   \   00000000   9508               RET

   \                                 In  segment CODE, align 2, keep-with-next
   \                     `?<Unnamed 4>`:
   \   00000000   9508               RET

   \                                 In  segment CODE, align 2, keep-with-next
   \                     `?<Unnamed 5>`:
   \   00000000   9508               RET

   \                                 In  segment CODE, align 2, keep-with-next
   \                     `?<Unnamed 6>`:
   \   00000000   9508               RET

   \                                 In  segment CODE, align 2, keep-with-next
   \                     `?<Unnamed 7>`:
   \   00000000   9508               RET

   \                                 In  segment CODE, align 2, keep-with-next
   \                     `?<Unnamed 8>`:
   \   00000000   9508               RET

   \                                 In  segment CODE, align 2, keep-with-next
   \                     `?<Unnamed 9>`:
   \   00000000   9508               RET

   \                                 In  segment CODE, align 2, keep-with-next
   \                     ?Subroutine10:
   \   00000000   01FD               MOVW    R31:R30, R27:R26
   \   00000002   8502               LDD     R16, Z+10
   \   00000004   8513               LDD     R17, Z+11
   \   00000006                      REQUIRE ?Subroutine13
   \   00000006                      ;               // Fall through to label ?Subroutine13

   \                                 In  segment CODE, align 2, keep-with-next
   \                     ?Subroutine13:
   \   00000000   01FC               MOVW    R31:R30, R25:R24
   \   00000002   9508               RET

   \                                 In  segment CODE, align 2, keep-with-next
   \                     ?Subroutine9:
   \   00000000   01FD               MOVW    R31:R30, R27:R26
   \   00000002                      REQUIRE ??Subroutine14_0
   \   00000002                      ;               // Fall through to label ??Subroutine14_0

   \                                 In  segment CODE, align 2, keep-with-next
   \                     ??Subroutine14_0:
   \   00000000   8504               LDD     R16, Z+12
   \   00000002   8515               LDD     R17, Z+13
   \   00000004   ....               RJMP    ?Subroutine13

   \                                 In  segment NEAR_F, align 1, keep-with-next
   \   __vtbl_entry const __flash myTimer1s::__vtbl[2]
   \                     ??__vtbl:
   \   00000000   ........           DC16 `?~myTimer1s`/2, ??TimeOutEvent/2
   \   00000004   ........           DC16 `?~myTimer500ms`/2, ??TimeOutEvent_1/2
   \   00000008   ........           DC16 `?~mySWEvent`/2, ??Changed/2
   \   0000000C   ........           DC16 `?~myAdcAdaptor`/2, ??Converted/2
   \   00000010   ........           DC16 `?~myPwmAdaptor`/2, ??SetDuty/2
   \   00000014   ........           DC16 `?~mySerialEvent`/2, ??Receive/2
   \   00000018   ........           DC16 `?~mySerialOutAdaptor`/2, ??Write/2
   \   0000001C   ........           DC16 `?~mylcdAdaptor`/2, ??Write_1/2
    311           

   Maximum stack usage in bytes:

     Function                       CSTACK RSTACK
     --------                       ------ ------
     <Unnamed 0>                        0      2
       -> Term_Project_s::~Term_Project_s()
                                        0      2
     <Unnamed 1>                        0      2
       -> CalClkFuncGen::~CalClkFuncGen()
                                        0      2
     <Unnamed 2>                        0      2
     <Unnamed 3>                        0      2
     <Unnamed 4>                        0      2
     <Unnamed 5>                        0      2
     <Unnamed 6>                        0      2
     <Unnamed 7>                        0      2
     <Unnamed 8>                        0      2
     <Unnamed 9>                        0      2
     SystemManager::Exit()              0      2
     Term_Project_s::Init()             4      2
       -> GetDriverFactory()            4      2
       -> GetBCComponentManager()       4      2
       -> BCComponentManager::CreateTimer()
                                        4      2
       -> GetBCComponentManager()       4      2
       -> BCComponentManager::CreateLed(BCComponentManager::LED)
                                        4      2
       -> GetBCComponentManager()       4      2
       -> BCComponentManager::CreateDIn()
                                        4      2
       -> GetBCComponentManager()       4      2
       -> BCComponentManager::CreateSerialIO(unsigned char)
                                        4      2
       -> GetBCComponentManager()       4      2
       -> BCComponentManager::CreateAdc()
                                        4      2
       -> GetBCComponentManager()       4      2
       -> BCComponentManager::CreatePwm()
                                        4      2
       ->   Indirect call               4      2
       -> TimerManager::AddEvent(ITimerEvent *)
                                        4      2
       -> TimerManager::AddEvent(ITimerEvent *)
                                        4      2
       -> DIn::SetEvent(DInEvent &)     4      2
       -> SerialIO::SetEvent(SerialEvent &)
                                        4      2
       -> Adc::SetFrequency(unsigned char)
                                        4      2
       -> Adc::Addevent(AdcEvent *)     4      2
       -> Adc::Run()                    4      2
       -> CalClkFuncGen::SetIStringOut(IStringOut *, IStringOut *, IStringOut *)
                                        4      2
       -> CalClkFuncGen::SetPwm(IPwmOut *)
                                        4      2
       -> SerialIO::Write(char __flash *)
                                        4      2
       -> CalClkFuncGen::Init()         4      2
     Term_Project_s::Term_Project_s()
                                        2      2
       -> SystemManager::SystemManager()
                                        2      2
     Term_Project_s::new Term_Project_s()
                                        0      2
       -> operator new(size_t)          0      2
       -> Term_Project_s::Term_Project_s()
                                        0      2
     Term_Project_s::~Term_Project_s()
                                        4      2
       -> SystemManager::~SystemManager()
                                        4      2
       -> operator delete(void *)       4      2
     __sti__routine()                   2      2
       -> Term_Project_s::Term_Project_s()
                                        2      2
       -> __record_needed_destruction
                                        2      2
       -> CalClkFuncGen::CalClkFuncGen()
                                        2      2
       -> __record_needed_destruction
                                        2      2
       -> __record_needed_destruction
                                        2      2
       -> __record_needed_destruction
                                        2      2
       -> __record_needed_destruction
                                        2      2
       -> __record_needed_destruction
                                        2      2
       -> __record_needed_destruction
                                        2      2
       -> __record_needed_destruction
                                        2      2
       -> __record_needed_destruction
                                        2      2
       -> __record_needed_destruction
                                        2      2
       -> __record_needed_destruction
                                        2      2
     myAdcAdaptor::Converted(unsigned short)
                                        0      2
       -> CalClkFuncGen::InputAdc(unsigned short)
                                        0      2
     myAdcAdaptor::~myAdcAdaptor()      0      2
       -> operator delete(void *)       0      2
     myPwmAdaptor::SetDuty(unsigned short)
                                        0      2
       -> Pwm::SetDuty(unsigned short)
                                        0      2
     myPwmAdaptor::~myPwmAdaptor()      0      2
       -> operator delete(void *)       0      2
     mySWEvent::Changed(DInEvent::EDGE)
                                        0      2
       -> CalClkFuncGen::Switch()       0      2
     mySWEvent::~mySWEvent()            0      2
       -> operator delete(void *)       0      2
     mySerialEvent::Receive(unsigned char)
                                        4      2
       -> SerialIO::Write(unsigned char)
                                        4      2
       -> SerialIO::Write(char const *)
                                        4      2
       -> CalClkFuncGen::InputCh(char)
                                        4      2
     mySerialEvent::~mySerialEvent()
                                        0      2
       -> operator delete(void *)       0      2
     mySerialOutAdaptor::Write(char *)
                                        0      2
       -> SerialIO::Write(char const *)
                                        0      2
     mySerialOutAdaptor::~mySerialOutAdaptor()
                                        0      2
       -> operator delete(void *)       0      2
     myTimer1s::TimeOutEvent()          2      2
       -> DOut::Flip(unsigned char)     2      2
       -> CalClkFuncGen::tm1s()         2      2
     myTimer1s::~myTimer1s()            0      2
       -> operator delete(void *)       0      2
     myTimer500ms::TimeOutEvent()       2      2
       -> DOut::Flip(unsigned char)     2      2
       -> CalClkFuncGen::tm500ms()      2      2
     myTimer500ms::~myTimer500ms()      0      2
       -> operator delete(void *)       0      2
     mylcdAdaptor::Write(char *)        0      2
       -> Clcd::Write(unsigned char, char *)
                                        0      2
     mylcdAdaptor::~mylcdAdaptor()      0      2
       -> operator delete(void *)       0      2


   Segment part sizes:

     Function/Label                     Bytes
     --------------                     -----
     SystemManager::Exit()                 2
     Term_Project_s::~Term_Project_s()
                                          38
     myTimer1s::~myTimer1s()              16
     myTimer1s::TimeOutEvent()            44
     myTimer500ms::~myTimer500ms()        16
     myTimer500ms::TimeOutEvent()         44
     mySWEvent::~mySWEvent()              16
     mySWEvent::Changed(DInEvent::EDGE)
                                          22
     myAdcAdaptor::~myAdcAdaptor()        16
     myAdcAdaptor::Converted(unsigned short)
                                          18
     myPwmAdaptor::~myPwmAdaptor()        16
     myPwmAdaptor::SetDuty(unsigned short)
                                          18
     mySerialEvent::~mySerialEvent()
                                          16
     mySerialEvent::Receive(unsigned char)
                                          60
     mySerialOutAdaptor::~mySerialOutAdaptor()
                                          16
     mySerialOutAdaptor::Write(char *)
                                          18
     mylcdAdaptor::~mylcdAdaptor()        16
     mylcdAdaptor::Write(char *)          24
     __sti__routine()                    176
     ?<Unnamed 0>                          8
     ?<Unnamed 1>                          8
     ?_0                                  66
     mytimer_1sec                        108
     mytimer_500ms
     myserialEvent
     mySW
     mylcdline1
     mylcdline2
     myadcEvent
     myPwmadp
     myserialadp
     myApp
     ccf
     ?Subroutine11                         6
     ?Subroutine12                         6
     Term_Project_s::Term_Project_s()
                                          24
     Term_Project_s::Init()              332
     ?Subroutine8                          8
     ?Subroutine7                          8
     ?Subroutine6                         14
     ?Subroutine5                          4
     ?Subroutine0                          6
     ?<Initializer for <Constant "\n">>    2
     ?<Initializer for >                  66
     ?<Constant "\n">                      2
     Term_Project_s::new Term_Project_s()
                                          22
     ?Subroutine3                         10
     ?Subroutine2                          4
     ?Subroutine1                          8
     ?<Unnamed 2>                          2
     ?<Unnamed 3>                          2
     ?<Unnamed 4>                          2
     ?<Unnamed 5>                          2
     ?<Unnamed 6>                          2
     ?<Unnamed 7>                          2
     ?<Unnamed 8>                          2
     ?<Unnamed 9>                          2
     ?Subroutine10                         6
     ?Subroutine13                         4
     ?Subroutine9                          2
     ??Subroutine14_0                      6
     myTimer1s::__vtbl                    32
     myTimer500ms::__vtbl
     mySWEvent::__vtbl
     myAdcAdaptor::__vtbl
     myPwmAdaptor::__vtbl
     mySerialEvent::__vtbl
     mySerialOutAdaptor::__vtbl
     mylcdAdaptor::__vtbl
      Others                              44

 
 1 094 bytes in segment CODE
     2 bytes in segment DIFUNCT
    14 bytes in segment INITTAB
    38 bytes in segment NEAR_F
    68 bytes in segment NEAR_I
    68 bytes in segment NEAR_ID
   130 bytes in segment NEAR_Z
 
 780 bytes of CODE memory (+ 436 bytes shared)
 198 bytes of DATA memory

Errors: none
Warnings: 1
