###############################################################################
#                                                                             #
# IAR C/C++ Compiler V5.50.0.50277/W32 for Atmel AVR    20/Dec/2013  10:32:44 #
# Copyright (C) 1996-2010 IAR Systems AB.                                     #
#                                                                             #
#    Source file  =  C:\work\TIEL_FrameWork\CPU\AVR_Driver\avr_uart.cpp       #
#    Command line =  C:\work\TIEL_FrameWork\CPU\AVR_Driver\avr_uart.cpp       #
#                    --cpu=m128 -ms -o C:\work\ATmega128_Debug\Obj\ -D        #
#                    xNDEBUG -D xWATCHDOG_ENABLE -lC                          #
#                    C:\work\ATmega128_Debug\List\ -y                         #
#                    --initializers_in_flash -z2 --no_cse --no_inline         #
#                    --no_code_motion --no_cross_call --no_clustering         #
#                    --no_tbaa --cross_call_passes=2 --debug                  #
#                    -DENABLE_BIT_DEFINITIONS --do_cross_call -e -I ./\ -I    #
#                    C:\work\ -I C:\work/TIEL_FrameWork/Basic_Component\ -I   #
#                    C:\work/TIEL_FrameWork/BSP/MC_E02SMB_v1_3\ -I            #
#                    C:\work/TIEL_FrameWork/Common\ -I                        #
#                    C:\work/TIEL_FrameWork/Configuration\ -I                 #
#                    C:\work/TIEL_FrameWork/CPU/AVR_Driver\ -I                #
#                    C:\work/TIEL_FrameWork/Driver_Interface\ -I              #
#                    C:\work/TIEL_FrameWork/Drivers\ -I                       #
#                    C:\work/TIEL_FrameWork/Service\ -I                       #
#                    C:\work/TIEL_FrameWork/System\ -I                        #
#                    C:\work/TIEL_FrameWork/Test\ -I                          #
#                    C:\work/TIEL_FrameWork/Utils\ -I C:\work/BUILD_COUNT\    #
#                    -I "C:\Program Files\IAR Systems\Embedded Workbench      #
#                    5.4\avr\INC\" -I "C:\Program Files\IAR Systems\Embedded  #
#                    Workbench 5.4\avr\INC\DLIB\" --eeprom_size 4096 --eec++  #
#                    --dlib_config "C:\Program Files\IAR Systems\Embedded     #
#                    Workbench 5.4\avr\LIB\DLIB\dlAVR-3s-ec_mul-n.h"          #
#    List file    =  C:\work\ATmega128_Debug\List\avr_uart.lst                #
#    Object file  =  C:\work\ATmega128_Debug\Obj\avr_uart.r90                 #
#                                                                             #
#                                                                             #
###############################################################################

C:\work\TIEL_FrameWork\CPU\AVR_Driver\avr_uart.cpp
      1          ///////////////////////////////////////////////////////////////////////////////////////
      2           
      3          // Project description
      4           
      5          // -------------------------------------------
      6           
      7          // Description: avr_uart Class
      8           
      9          //
     10           
     11          // Author: Yoo Joo-Hyoung (potato97@naver.com)
     12           
     13          // Site: ccrs.hanyang.ac.kr
     14           
     15          // Copyright (C) 2013-2013 TIEL(TIEL is Embedded S/W library) Project.
     16           
     17          //
     18           
     19          //////////////////////////////////////////////////////////////////////////////////////////
     20          //
     21          //    License type: GNU General Public License (GPL)
     22          //      
     23          //    This program is free software: you can redistribute it and/or modify
     24          //    it under the terms of the GNU General Public License as published by
     25          //    the Free Software Foundation, either version 3 of the License, or
     26          //    (at your option) any later version.
     27          
     28          //    This program is distributed in the hope that it will be useful,
     29          //    but WITHOUT ANY WARRANTY; without even the implied warranty of
     30          //    MERCHANTABILITY or FITNESS FOR A PARTICULAR PURPOSE.  See the
     31          //    GNU General Public License for more details.
     32          
     33          //    You should have received a copy of the GNU General Public License
     34          //    along with this program.  If not, see <http://www.gnu.org/licenses/>.
     35          //
     36          //////////////////////////////////////////////////////////////////////////////////////////
     37          
     38          #include "avr_uart.h"

   \                                 In  segment CODE, align 2, keep-with-next
   \   __nearfunc __version_3 ISerialPort::ISerialPort(unsigned long)
   \                     ??ISerialPort:
   \   00000000   E020               LDI     R18, 0
   \   00000002   E030               LDI     R19, 0
   \   00000004   01F8               MOVW    R31:R30, R17:R16
   \   00000006   8320               ST      Z, R18
   \   00000008   8331               STD     Z+1, R19
   \   0000000A   01F8               MOVW    R31:R30, R17:R16
   \   0000000C   8342               STD     Z+2, R20
   \   0000000E   8353               STD     Z+3, R21
   \   00000010   8364               STD     Z+4, R22
   \   00000012   8375               STD     Z+5, R23
   \   00000014   9508               RET

   \                                 In  segment CODE, align 2, keep-with-next
   \   __nearfunc __version_3 ISerialPort::~ISerialPort()
   \                     `?~ISerialPort`:
   \   00000000   939A               ST      -Y, R25
   \   00000002   938A               ST      -Y, R24
   \   00000004   01C8               MOVW    R25:R24, R17:R16
   \   00000006   2F08               MOV     R16, R24
   \   00000008   2B09               OR      R16, R25
   \   0000000A   F031               BREQ    `?~ISerialPort_1`
   \   0000000C   2F02               MOV     R16, R18
   \   0000000E   FF00               SBRS    R16, 0
   \   00000010   C003               RJMP    `?~ISerialPort_1`
   \   00000012   018C               MOVW    R17:R16, R25:R24
   \   00000014   ........           CALL    `??operator delete`
   \                     `?~ISerialPort_1`:
   \   00000018   9189               LD      R24, Y+
   \   0000001A   9199               LD      R25, Y+
   \   0000001C   9508               RET

   \                                 In  segment CODE, align 2, keep-with-next
   \   __nearfunc __version_3 void ISerialPort::SendrxBuff(unsigned char)
   \                     ??SendrxBuff:
   \   00000000   ........           CALL    ?PROLOGUE4_L09
   \   00000004   01D8               MOVW    R27:R26, R17:R16
   \   00000006   2F82               MOV     R24, R18
   \   00000008   01FD               MOVW    R31:R30, R27:R26
   \   0000000A   8100               LD      R16, Z
   \   0000000C   8111               LDD     R17, Z+1
   \   0000000E   2B01               OR      R16, R17
   \   00000010   F451               BRNE    ??SendrxBuff_1
   \   00000012   E843               LDI     R20, 131
   \   00000014   E050               LDI     R21, 0
   \   00000016   ....               LDI     R18, LOW(`?<Constant "C:\\\\work\\\\TIEL_FrameWor...">`)
   \   00000018   ....               LDI     R19, (`?<Constant "C:\\\\work\\\\TIEL_FrameWor...">`) >> 8
   \   0000001A   ....               LDI     R16, LOW(`?<Constant "0 != seIO">`)
   \   0000001C   ....               LDI     R17, (`?<Constant "0 != seIO">`) >> 8
   \   0000001E   ........           CALL    __taabi_assert
   \   00000022   ........           CALL    __iar_EmptyStepPoint
   \                     ??SendrxBuff_1:
   \   00000026   910D               LD      R16, X+
   \   00000028   911C               LD      R17, X
   \   0000002A   9711               SBIW    R27:R26, 1
   \   0000002C   2B01               OR      R16, R17
   \   0000002E   F031               BREQ    ??SendrxBuff_2
   \   00000030   2F28               MOV     R18, R24
   \   00000032   910D               LD      R16, X+
   \   00000034   911C               LD      R17, X
   \   00000036   9711               SBIW    R27:R26, 1
   \   00000038   ........           CALL    ??PushBackRxBuff
   \                     ??SendrxBuff_2:
   \   0000003C   E0E4               LDI     R30, 4
   \   0000003E   ........           JMP     ?EPILOGUE_B4_L09

   \                                 In  segment CODE, align 2, keep-with-next
   \   __nearfunc __version_3 unsigned char ISerialPort::SendtxBuff(unsigned char &)
   \                     ??SendtxBuff:
   \   00000000   ........           CALL    ?PROLOGUE4_L09
   \   00000004   01D8               MOVW    R27:R26, R17:R16
   \   00000006   01C9               MOVW    R25:R24, R19:R18
   \   00000008   01FD               MOVW    R31:R30, R27:R26
   \   0000000A   8100               LD      R16, Z
   \   0000000C   8111               LDD     R17, Z+1
   \   0000000E   2B01               OR      R16, R17
   \   00000010   F451               BRNE    ??SendtxBuff_1
   \   00000012   E84B               LDI     R20, 139
   \   00000014   E050               LDI     R21, 0
   \   00000016   ....               LDI     R18, LOW(`?<Constant "C:\\\\work\\\\TIEL_FrameWor...">`)
   \   00000018   ....               LDI     R19, (`?<Constant "C:\\\\work\\\\TIEL_FrameWor...">`) >> 8
   \   0000001A   ....               LDI     R16, LOW(`?<Constant "0 != seIO">`)
   \   0000001C   ....               LDI     R17, (`?<Constant "0 != seIO">`) >> 8
   \   0000001E   ........           CALL    __taabi_assert
   \   00000022   ........           CALL    __iar_EmptyStepPoint
   \                     ??SendtxBuff_1:
   \   00000026   910D               LD      R16, X+
   \   00000028   911C               LD      R17, X
   \   0000002A   9711               SBIW    R27:R26, 1
   \   0000002C   2B01               OR      R16, R17
   \   0000002E   F061               BREQ    ??SendtxBuff_2
   \   00000030   019C               MOVW    R19:R18, R25:R24
   \   00000032   910D               LD      R16, X+
   \   00000034   911C               LD      R17, X
   \   00000036   9711               SBIW    R27:R26, 1
   \   00000038   ........           CALL    ??PopTxBuff
   \   0000003C   2300               TST     R16
   \   0000003E   F011               BREQ    ??SendtxBuff_3
   \   00000040   E001               LDI     R16, 1
   \   00000042   C003               RJMP    ??SendtxBuff_4
   \                     ??SendtxBuff_3:
   \   00000044   E000               LDI     R16, 0
   \   00000046   C001               RJMP    ??SendtxBuff_4
   \                     ??SendtxBuff_2:
   \   00000048   E000               LDI     R16, 0
   \                     ??SendtxBuff_4:
   \   0000004A   E0E4               LDI     R30, 4
   \   0000004C   ........           JMP     ?EPILOGUE_B4_L09

   \                                 In  segment CODE, align 2, keep-with-next
   \   __nearfunc __version_3 Avr_uart0::~Avr_uart0()
   \                     `?~Avr_uart0`:
   \   00000000   ........           CALL    ?PROLOGUE4_L09
   \   00000004   01C8               MOVW    R25:R24, R17:R16
   \   00000006   01D9               MOVW    R27:R26, R19:R18
   \   00000008   2F08               MOV     R16, R24
   \   0000000A   2B09               OR      R16, R25
   \   0000000C   F059               BREQ    `?~Avr_uart0_1`
   \   0000000E   E020               LDI     R18, 0
   \   00000010   E030               LDI     R19, 0
   \   00000012   018C               MOVW    R17:R16, R25:R24
   \   00000014   ........           CALL    `?~ISerialPort`
   \   00000018   2F0A               MOV     R16, R26
   \   0000001A   FF00               SBRS    R16, 0
   \   0000001C   C003               RJMP    `?~Avr_uart0_1`
   \   0000001E   018C               MOVW    R17:R16, R25:R24
   \   00000020   ........           CALL    `??operator delete`
   \                     `?~Avr_uart0_1`:
   \   00000024   E0E4               LDI     R30, 4
   \   00000026   ........           JMP     ?EPILOGUE_B4_L09
     39          #include "avr_common.h"
     40          #include <ioavr.h>

   \                                 In  segment ABSOLUTE, at 0x29
   \   <__C9> volatile __io _A_UBRR0L
   \                     _A_UBRR0L:
   \   00000000                      DS8 1

   \                                 In  segment ABSOLUTE, at 0x2a
   \   <__C10> volatile __io _A_UCSR0B
   \                     _A_UCSR0B:
   \   00000000                      DS8 1

   \                                 In  segment ABSOLUTE, at 0x2b
   \   <__C11> volatile __io _A_UCSR0A
   \                     _A_UCSR0A:
   \   00000000                      DS8 1

   \                                 In  segment ABSOLUTE, at 0x2c
   \   <__C12> volatile __io _A_UDR0
   \                     _A_UDR0:
   \   00000000                      DS8 1

   \                                 In  segment ABSOLUTE, at 0x31
   \   <__C17> volatile __io _A_DDRD
   \                     _A_DDRD:
   \   00000000                      DS8 1

   \                                 In  segment ABSOLUTE, at 0x90
   \   <__C85> volatile __io _A_UBRR0H
   \                     _A_UBRR0H:
   \   00000000                      DS8 1

   \                                 In  segment ABSOLUTE, at 0x95
   \   <__C86> volatile __io _A_UCSR0C
   \                     _A_UCSR0C:
   \   00000000                      DS8 1
     41          #include <inavr.h>
     42          

   \                                 In  segment NEAR_Z, align 1, keep-with-next
   \   00000000                      REQUIRE `?<Segment init: NEAR_Z>`
     43          static Avr_uart0 * uart0 = 0;
   \                     uart0:
   \   00000000                      DS8 2
     44          
     45          #define UDRIE 5
     46          
     47          #if defined(__ATmega128__)
     48          #pragma vector = USART0_RXC_vect
     49          #endif
     50          
     51          #if defined(__ATmega164P__) | defined(__ATmega164PA__) | defined(__ATmega324P__)
     52          #pragma vector = USART0_RX_vect // for atmega164/324
     53          #endif

   \                                 In  segment CODE, align 2, keep-with-next
     54          __interrupt void usart0_rxc(void)
   \                     ??usart0_rxc:
     55          {
   \   00000000   939A               ST      -Y, R25
   \   00000002   938A               ST      -Y, R24
   \   00000004   93FA               ST      -Y, R31
   \   00000006   93EA               ST      -Y, R30
   \   00000008   923A               ST      -Y, R3
   \   0000000A   922A               ST      -Y, R2
   \   0000000C   921A               ST      -Y, R1
   \   0000000E   920A               ST      -Y, R0
   \   00000010   937A               ST      -Y, R23
   \   00000012   936A               ST      -Y, R22
   \   00000014   935A               ST      -Y, R21
   \   00000016   934A               ST      -Y, R20
   \   00000018   933A               ST      -Y, R19
   \   0000001A   932A               ST      -Y, R18
   \   0000001C   931A               ST      -Y, R17
   \   0000001E   930A               ST      -Y, R16
   \   00000020   B78F               IN      R24, 0x3F
   \   00000022   B79B               IN      R25, 0x3B
     56            if(0 != uart0)
   \   00000024   9100....           LDS     R16, uart0
   \   00000028   9110....           LDS     R17, (uart0 + 1)
   \   0000002C   2B01               OR      R16, R17
   \   0000002E   F039               BREQ    ??usart0_rxc_1
     57              uart0->SendrxBuff(UDR0);
   \   00000030   B12C               IN      R18, 0x0C
   \   00000032   9100....           LDS     R16, uart0
   \   00000036   9110....           LDS     R17, (uart0 + 1)
   \   0000003A   ........           CALL    ??SendrxBuff
     58          }
   \                     ??usart0_rxc_1:
   \   0000003E   BF9B               OUT     0x3B, R25
   \   00000040   BF8F               OUT     0x3F, R24
   \   00000042   9109               LD      R16, Y+
   \   00000044   9119               LD      R17, Y+
   \   00000046   9129               LD      R18, Y+
   \   00000048   9139               LD      R19, Y+
   \   0000004A   9149               LD      R20, Y+
   \   0000004C   9159               LD      R21, Y+
   \   0000004E   9169               LD      R22, Y+
   \   00000050   9179               LD      R23, Y+
   \   00000052   9009               LD      R0, Y+
   \   00000054   9019               LD      R1, Y+
   \   00000056   9029               LD      R2, Y+
   \   00000058   9039               LD      R3, Y+
   \   0000005A   91E9               LD      R30, Y+
   \   0000005C   91F9               LD      R31, Y+
   \   0000005E   9189               LD      R24, Y+
   \   00000060   9199               LD      R25, Y+
   \   00000062   9518               RETI
   \   00000064                      REQUIRE _A_UDR0
     59          
     60          #pragma vector = USART0_UDRE_vect // for atmega164

   \                                 In  segment CODE, align 2, keep-with-next
     61          __interrupt void usart0_txc(void)
   \                     ??usart0_txc:
     62          {
   \   00000000   939A               ST      -Y, R25
   \   00000002   938A               ST      -Y, R24
   \   00000004   93FA               ST      -Y, R31
   \   00000006   93EA               ST      -Y, R30
   \   00000008   923A               ST      -Y, R3
   \   0000000A   922A               ST      -Y, R2
   \   0000000C   921A               ST      -Y, R1
   \   0000000E   920A               ST      -Y, R0
   \   00000010   937A               ST      -Y, R23
   \   00000012   936A               ST      -Y, R22
   \   00000014   935A               ST      -Y, R21
   \   00000016   934A               ST      -Y, R20
   \   00000018   933A               ST      -Y, R19
   \   0000001A   932A               ST      -Y, R18
   \   0000001C   931A               ST      -Y, R17
   \   0000001E   930A               ST      -Y, R16
   \   00000020   B78F               IN      R24, 0x3F
   \   00000022   B79B               IN      R25, 0x3B
   \   00000024   9721               SBIW    R29:R28, 1
     63            unsigned char t;
     64            
     65            if(0 != uart0){
   \   00000026   9100....           LDS     R16, uart0
   \   0000002A   9110....           LDS     R17, (uart0 + 1)
   \   0000002E   2B01               OR      R16, R17
   \   00000030   F069               BREQ    ??usart0_txc_1
     66              if(uart0->SendtxBuff(t))
   \   00000032   019E               MOVW    R19:R18, R29:R28
   \   00000034   9100....           LDS     R16, uart0
   \   00000038   9110....           LDS     R17, (uart0 + 1)
   \   0000003C   ........           CALL    ??SendtxBuff
   \   00000040   2300               TST     R16
   \   00000042   F019               BREQ    ??usart0_txc_2
     67              {
     68                UDR0 = t;
   \   00000044   8108               LD      R16, Y
   \   00000046   B90C               OUT     0x0C, R16
   \   00000048   C001               RJMP    ??usart0_txc_1
     69              }
     70              else
     71              {
     72                UCSR0B &= ~(1 << UDRIE);
   \                     ??usart0_txc_2:
   \   0000004A   9855               CBI     0x0A, 0x05
     73              }
     74            }
     75          }
   \                     ??usart0_txc_1:
   \   0000004C   9621               ADIW    R29:R28, 1
   \   0000004E   BF9B               OUT     0x3B, R25
   \   00000050   BF8F               OUT     0x3F, R24
   \   00000052   9109               LD      R16, Y+
   \   00000054   9119               LD      R17, Y+
   \   00000056   9129               LD      R18, Y+
   \   00000058   9139               LD      R19, Y+
   \   0000005A   9149               LD      R20, Y+
   \   0000005C   9159               LD      R21, Y+
   \   0000005E   9169               LD      R22, Y+
   \   00000060   9179               LD      R23, Y+
   \   00000062   9009               LD      R0, Y+
   \   00000064   9019               LD      R1, Y+
   \   00000066   9029               LD      R2, Y+
   \   00000068   9039               LD      R3, Y+
   \   0000006A   91E9               LD      R30, Y+
   \   0000006C   91F9               LD      R31, Y+
   \   0000006E   9189               LD      R24, Y+
   \   00000070   9199               LD      R25, Y+
   \   00000072   9518               RETI
   \   00000074                      REQUIRE _A_UCSR0B
   \   00000074                      REQUIRE _A_UDR0
     76          

   \                                 In  segment CODE, align 2, keep-with-next
     77          Avr_uart0::Avr_uart0()
   \                     ??Avr_uart0:
   \   00000000   93BA               ST      -Y, R27
   \   00000002   93AA               ST      -Y, R26
   \   00000004   01D8               MOVW    R27:R26, R17:R16
     78          {
   \   00000006   E040               LDI     R20, 0
   \   00000008   E956               LDI     R21, 150
   \   0000000A   E060               LDI     R22, 0
   \   0000000C   E070               LDI     R23, 0
   \   0000000E   018D               MOVW    R17:R16, R27:R26
   \   00000010   ........           CALL    ??ISerialPort
   \   00000014   ....               LDI     R16, LOW(??__vtbl)
   \   00000016   ....               LDI     R17, (??__vtbl) >> 8
   \   00000018   9616               ADIW    R27:R26, 6
   \   0000001A   930D               ST      X+, R16
   \   0000001C   931C               ST      X, R17
   \   0000001E   9717               SBIW    R27:R26, 7
     79            Init();
   \   00000020   018D               MOVW    R17:R16, R27:R26
   \   00000022   ....               RCALL   ??Init
     80            uart0 = this;
   \   00000024   93A0....           STS     uart0, R26
   \   00000028   93B0....           STS     (uart0 + 1), R27
     81          }
   \   0000002C   018D               MOVW    R17:R16, R27:R26
   \   0000002E   91A9               LD      R26, Y+
   \   00000030   91B9               LD      R27, Y+
   \   00000032   9508               RET
     82          

   \                                 In  segment CODE, align 2, keep-with-next
     83          void Avr_uart0::Init(void)
   \                     ??Init:
     84          {
   \   00000000   93BA               ST      -Y, R27
   \   00000002   93AA               ST      -Y, R26
   \   00000004   01D8               MOVW    R27:R26, R17:R16
     85           // unsigned long baud = 38400;  
     86            /*================================
     87              BAUD = F_CPU / (16 * (UBRR + 1) )
     88              UBRR = (F_CPU / (16L*baud)) - 1
     89            ==================================*/
     90            
     91            __disable_interrupt();
   \   00000006   94F8               CLI
     92            
     93             baud = (F_CPU / (16L*baud)) - 1;    
   \   00000008   9612               ADIW    R27:R26, 2
   \   0000000A   910D               LD      R16, X+
   \   0000000C   911D               LD      R17, X+
   \   0000000E   912D               LD      R18, X+
   \   00000010   913C               LD      R19, X
   \   00000012   9715               SBIW    R27:R26, 5
   \   00000014   E140               LDI     R20, 16
   \   00000016   E050               LDI     R21, 0
   \   00000018   E060               LDI     R22, 0
   \   0000001A   E070               LDI     R23, 0
   \   0000001C   ........           CALL    ?L_EC_MUL_L03
   \   00000020   01A8               MOVW    R21:R20, R17:R16
   \   00000022   01B9               MOVW    R23:R22, R19:R18
   \   00000024   E000               LDI     R16, 0
   \   00000026   E214               LDI     R17, 36
   \   00000028   EF24               LDI     R18, 244
   \   0000002A   E030               LDI     R19, 0
   \   0000002C   ........           CALL    ?UL_DIVMOD_L03
   \   00000030   5001               SUBI    R16, 1
   \   00000032   4010               SBCI    R17, 0
   \   00000034   4020               SBCI    R18, 0
   \   00000036   4030               SBCI    R19, 0
   \   00000038   9612               ADIW    R27:R26, 2
   \   0000003A   930D               ST      X+, R16
   \   0000003C   931D               ST      X+, R17
   \   0000003E   932D               ST      X+, R18
   \   00000040   933C               ST      X, R19
   \   00000042   9715               SBIW    R27:R26, 5
     94          // buad 로 인자로 받아온 buad로 초기화..
     95                
     96            //uart1 register baud setting
     97             UBRR0H = (unsigned char)(baud>>8);            // 클경우 상위 8bit만 잘리기에..
   \   00000044   9612               ADIW    R27:R26, 2
   \   00000046   910D               LD      R16, X+
   \   00000048   911D               LD      R17, X+
   \   0000004A   912D               LD      R18, X+
   \   0000004C   913C               LD      R19, X
   \   0000004E   9715               SBIW    R27:R26, 5
   \   00000050   2F01               MOV     R16, R17
   \   00000052   E010               LDI     R17, 0
   \   00000054   9300....           STS     _A_UBRR0H, R16
     98             UBRR0L = (unsigned char)(baud);
   \   00000058   9612               ADIW    R27:R26, 2
   \   0000005A   910D               LD      R16, X+
   \   0000005C   911D               LD      R17, X+
   \   0000005E   912D               LD      R18, X+
   \   00000060   913C               LD      R19, X
   \   00000062   9715               SBIW    R27:R26, 5
   \   00000064   B909               OUT     0x09, R16
     99            
    100             DDRD|= 1 << 1;     
   \   00000066   9A89               SBI     0x11, 0x01
    101             
    102            
    103             UCSR0A=0x00;
   \   00000068   E000               LDI     R16, 0
   \   0000006A   B90B               OUT     0x0B, R16
    104            // UCSR0B=0x18;   // Receive enable, Transmitte enable
    105            // UCSR0C=0x06;   // 비동기 방식, No parity bit, 1 stop bit   
    106          
    107          //   UBRR0H=0x00;
    108          //   UBRR0L=0x67;   // 16MHz에서 9600 bps  (10진수 103)
    109              
    110              // UCSR0B 설정
    111              // bit7:수신완료 인터럽허용 , 
    112              // bit6:송신완료 인터럽허용, 
    113              // bit4:uart rx enable, 
    114              // bit3: uart tx enable
    115              // bit2 : sendding size setting UCSR0C 같이 설정 => 0 : 8bit
    116              // 11011000 
    117          
    118          //    UCSR0B = (1<<7) | (1<<6) | (1<<4) | (1<<3) | (0<<2) ; // 00011000 
    119              UCSR0B = (1<<7) | (1<<4) | (1<<3) | (0<<2) ; // 00011000 
   \   0000006C   E908               LDI     R16, 152
   \   0000006E   B90A               OUT     0x0A, R16
    120            
    121              // UCSR0C 설정
    122              // bit6 : synchro setting => 0: dissynchro mode
    123              // bit5,bit4 : parity bit setting => 00 : not used
    124              // bit3 : stop bit setting => 0 : stop bit 2 use
    125              // bit2,bit1 : data sendding size => 11 : 8bit
    126              // 00001010
    127                  
    128              UCSR0C = (0<<3) | (1<<2) | (1<<1) | (0<<5) | (0<<4);
   \   00000070   E006               LDI     R16, 6
   \   00000072   9300....           STS     _A_UCSR0C, R16
    129            
    130            __enable_interrupt();
   \   00000076   9478               SEI
    131          }
   \   00000078   91A9               LD      R26, Y+
   \   0000007A   91B9               LD      R27, Y+
   \   0000007C   9508               RET
   \   0000007E                      REQUIRE _A_UBRR0L
   \   0000007E                      REQUIRE _A_UCSR0B
   \   0000007E                      REQUIRE _A_UCSR0A
   \   0000007E                      REQUIRE _A_DDRD
   \   0000007E                      REQUIRE _A_UBRR0H
   \   0000007E                      REQUIRE _A_UCSR0C
    132          

   \                                 In  segment CODE, align 2, keep-with-next
    133          void Avr_uart0::Run(void)
   \                     ??Run:
    134          {
    135            //assert()
    136            
    137            
    138          }
   \   00000000   9508               RET
    139          

   \                                 In  segment CODE, align 2, keep-with-next
    140          void Avr_uart0::SendTxEvent(void)
   \                     ??SendTxEvent:
    141          {
    142            
    143            UCSR0B |= (1 << UDRIE);
   \   00000000   9A55               SBI     0x0A, 0x05
    144          }
   \   00000002   9508               RET
   \   00000004                      REQUIRE _A_UCSR0B
    145          

   \                                 In  segment CODE, align 2, keep-with-next
    146          unsigned char Avr_uart0::Write(unsigned char _data)
   \                     ??Write:
    147          {
   \   00000000   01A8               MOVW    R21:R20, R17:R16
    148          //  assert()
    149            
    150            // UCSRnA 
    151            // bit5 : 송신 버퍼가 비어서 데이터를 받을 준비되면 1
    152          //   while (!(UCSR0A & 0x20))
    153          //      ;    //wait xmit ready
    154          
    155             if(UCSR0A & 0x20)
   \   00000002   9B5D               SBIS    0x0B, 0x05
   \   00000004   C003               RJMP    ??Write_1
    156             {
    157               UDR0 = (unsigned char) _data;
   \   00000006   B92C               OUT     0x0C, R18
    158               return 1;
   \   00000008   E001               LDI     R16, 1
   \   0000000A   9508               RET
    159             }
    160             else
    161             {
    162               return 0;
   \                     ??Write_1:
   \   0000000C   E000               LDI     R16, 0
   \   0000000E   9508               RET
   \   00000010                      REQUIRE _A_UCSR0A
   \   00000010                      REQUIRE _A_UDR0
    163             }
    164          
    165            
    166            
    167          }

   \                                 In  segment INTVEC, offset 0x48, root
   \                     `??usart0_rxc??INTVEC 72`:
   \   00000048   ........           JMP     ??usart0_rxc

   \                                 In  segment INTVEC, offset 0x4c, root
   \                     `??usart0_txc??INTVEC 76`:
   \   0000004C   ........           JMP     ??usart0_txc

   \                                 In  segment NEAR_ID, align 1, keep-with-next
   \                     `?<Initializer for <Constant "0 != seIO">>`:
   \   00000000   20303D217320       DC8 "0 != seIO"
   \              4965004F    

   \                                 In  segment NEAR_ID, align 1, keep-with-next
   \                     `?<Initializer for <Constant "C:\\\\work\\\\TIEL_Fr`:
   \   00000000   3A43775C726F       DC8 "C:\\work\\TIEL_FrameWork\\Basic_Component\\serialio.h"
   \              5C6B49544C45
   \              465F6172656D
   \              6F576B72425C
   \              73616369435F
   \              6D6F6F70656E
   \              746E735C7265
   \              6169696C2E6F
   \              0068        

   \                                 In  segment NEAR_I, align 1, keep-with-next
   \   00000000                      REQUIRE `?<Segment init: NEAR_I>`
   \                     `?<Constant "0 != seIO">`:
   \   00000000                      DS8 10
   \   0000000A                      REQUIRE `?<Initializer for <Constant "0 != seIO">>`

   \                                 In  segment NEAR_I, align 1, keep-with-next
   \   00000000                      REQUIRE `?<Segment init: NEAR_I>`
   \                     `?<Constant "C:\\\\work\\\\TIEL_FrameWor...">`:
   \   00000000                      DS8 50
   \   00000032                      REQUIRE `?<Initializer for <Constant "C:\\\\work\\\\TIEL_Fr`

   \                                 In  segment CODE, align 2, keep-with-next
   \   __nearfunc __version_3 Avr_uart0 *Avr_uart0::new Avr_uart0()
   \                     `??new Avr_uart0`:
   \   00000000   E008               LDI     R16, 8
   \   00000002   E010               LDI     R17, 0
   \   00000004   ........           CALL    `??operator new`
   \   00000008   0198               MOVW    R19:R18, R17:R16
   \   0000000A   2B01               OR      R16, R17
   \   0000000C   F019               BREQ    `??new Avr_uart0_1`
   \   0000000E   0189               MOVW    R17:R16, R19:R18
   \   00000010   ....               RCALL   ??Avr_uart0
   \   00000012   9508               RET
   \                     `??new Avr_uart0_1`:
   \   00000014   E000               LDI     R16, 0
   \   00000016   E010               LDI     R17, 0
   \   00000018   9508               RET

   Maximum stack usage in bytes:

     Function                       CSTACK RSTACK
     --------                       ------ ------
     Avr_uart0::Avr_uart0()             2      2
       -> ISerialPort::ISerialPort(unsigned long)
                                        2      2
       -> Avr_uart0::Init()             2      2
     Avr_uart0::Init()                  2      4
     Avr_uart0::Run()                   0      2
     Avr_uart0::SendTxEvent()           0      2
     Avr_uart0::Write(unsigned char)
                                        0      2
     Avr_uart0::new Avr_uart0()         0      2
       -> operator new(unsigned int)
                                        0      2
       -> Avr_uart0::Avr_uart0()        0      2
     Avr_uart0::~Avr_uart0()            4      2
       -> ISerialPort::~ISerialPort()
                                        4      2
       -> operator delete(void *)       4      2
     ISerialPort::ISerialPort(unsigned long)
                                        0      2
     ISerialPort::SendrxBuff(unsigned char)
                                        4      2
       -> __taabi_assert                4      2
       -> __iar_EmptyStepPoint          4      2
       -> SerialIO::PushBackRxBuff(unsigned char)
                                        4      2
     ISerialPort::SendtxBuff(unsigned char &)
                                        4      2
       -> __taabi_assert                4      2
       -> __iar_EmptyStepPoint          4      2
       -> SerialIO::PopTxBuff(unsigned char &)
                                        4      2
     ISerialPort::~ISerialPort()        2      2
       -> operator delete(void *)       2      2
     usart0_rxc()                      16      2
       -> ISerialPort::SendrxBuff(unsigned char)
                                       16      2
     usart0_txc()                      17      2
       -> ISerialPort::SendtxBuff(unsigned char &)
                                       17      2


   Segment part sizes:

     Function/Label                                 Bytes
     --------------                                 -----
     ISerialPort::ISerialPort(unsigned long)
                                                      22
     ISerialPort::~ISerialPort()                      30
     ISerialPort::SendrxBuff(unsigned char)
                                                      66
     ISerialPort::SendtxBuff(unsigned char &)
                                                      80
     Avr_uart0::~Avr_uart0()                          42
     _A_UBRR0L                                         1
     _A_UCSR0B                                         1
     _A_UCSR0A                                         1
     _A_UDR0                                           1
     _A_DDRD                                           1
     _A_UBRR0H                                         1
     _A_UCSR0C                                         1
     uart0                                             2
     usart0_rxc()                                    100
     usart0_txc()                                    116
     Avr_uart0::Avr_uart0()                           52
     Avr_uart0::Init()                               126
     Avr_uart0::Run()                                  2
     Avr_uart0::SendTxEvent()                          4
     Avr_uart0::Write(unsigned char)
                                                      16
     ??usart0_rxc??INTVEC 72                           4
     ??usart0_txc??INTVEC 76                           4
     ?<Initializer for <Constant "0 != seIO">>        10
     ?<Initializer for <Constant "C:\\work\\TIEL_Fr   50
     ?<Constant "0 != seIO">                          10
     ?<Constant "C:\\work\\TIEL_FrameWor...">         50
     Avr_uart0::new Avr_uart0()                       26
      Others                                          22

 
   7 bytes in segment ABSOLUTE
 682 bytes in segment CODE
  14 bytes in segment INITTAB
   8 bytes in segment INTVEC
   8 bytes in segment NEAR_F
  60 bytes in segment NEAR_I
  60 bytes in segment NEAR_ID
   2 bytes in segment NEAR_Z
 
 502 bytes of CODE memory (+ 270 bytes shared)
  62 bytes of DATA memory (+   7 bytes shared)

Errors: none
Warnings: none
