###############################################################################
#                                                                             #
# IAR C/C++ Compiler V5.50.0.50277/W32 for Atmel AVR    20/Dec/2013  10:32:44 #
# Copyright (C) 1996-2010 IAR Systems AB.                                     #
#                                                                             #
#    Source file  =  C:\work\TIEL_FrameWork\Basic_Component\dio.cpp           #
#    Command line =  C:\work\TIEL_FrameWork\Basic_Component\dio.cpp           #
#                    --cpu=m128 -ms -o C:\work\ATmega128_Debug\Obj\ -D        #
#                    xNDEBUG -D xWATCHDOG_ENABLE -lC                          #
#                    C:\work\ATmega128_Debug\List\ -y                         #
#                    --initializers_in_flash -z2 --no_cse --no_inline         #
#                    --no_code_motion --no_cross_call --no_clustering         #
#                    --no_tbaa --cross_call_passes=2 --debug                  #
#                    -DENABLE_BIT_DEFINITIONS --do_cross_call -e -I ./\ -I    #
#                    C:\work\ -I C:\work/TIEL_FrameWork/Basic_Component\ -I   #
#                    C:\work/TIEL_FrameWork/BSP/MC_E02SMB_v1_3\ -I            #
#                    C:\work/TIEL_FrameWork/Common\ -I                        #
#                    C:\work/TIEL_FrameWork/Configuration\ -I                 #
#                    C:\work/TIEL_FrameWork/CPU/AVR_Driver\ -I                #
#                    C:\work/TIEL_FrameWork/Driver_Interface\ -I              #
#                    C:\work/TIEL_FrameWork/Drivers\ -I                       #
#                    C:\work/TIEL_FrameWork/Service\ -I                       #
#                    C:\work/TIEL_FrameWork/System\ -I                        #
#                    C:\work/TIEL_FrameWork/Test\ -I                          #
#                    C:\work/TIEL_FrameWork/Utils\ -I C:\work/BUILD_COUNT\    #
#                    -I "C:\Program Files\IAR Systems\Embedded Workbench      #
#                    5.4\avr\INC\" -I "C:\Program Files\IAR Systems\Embedded  #
#                    Workbench 5.4\avr\INC\DLIB\" --eeprom_size 4096 --eec++  #
#                    --dlib_config "C:\Program Files\IAR Systems\Embedded     #
#                    Workbench 5.4\avr\LIB\DLIB\dlAVR-3s-ec_mul-n.h"          #
#    List file    =  C:\work\ATmega128_Debug\List\dio.lst                     #
#    Object file  =  C:\work\ATmega128_Debug\Obj\dio.r90                      #
#                                                                             #
#                                                                             #
###############################################################################

C:\work\TIEL_FrameWork\Basic_Component\dio.cpp
      1          #include "dio.h"
      2          
      3          #include <assert.h>
      4          

   \                                 In  segment CODE, align 2, keep-with-next
      5          DOut::DOut(void):stat(0)
   \                     ??DOut:
   \   00000000   E020               LDI     R18, 0
   \   00000002   01F8               MOVW    R31:R30, R17:R16
   \   00000004   8320               ST      Z, R18
      6          {
      7          }
   \   00000006   9508               RET
      8          

   \                                 In  segment CODE, align 2, keep-with-next
      9          void DOut::Set(unsigned char _v)
   \                     ??Set:
     10          {
   \   00000000   ........           CALL    ?PROLOGUE4_L09
   \   00000004   01D8               MOVW    R27:R26, R17:R16
   \   00000006   2F82               MOV     R24, R18
     11          //  assert(0x01 >= _v);
     12            
     13          //  _v &= 0x01;
     14            SetPort(_v);
   \   00000008   01FD               MOVW    R31:R30, R27:R26
   \   0000000A   8141               LDD     R20, Z+1
   \   0000000C   8152               LDD     R21, Z+2
   \   0000000E   5F4E               SUBI    R20, 254
   \   00000010   4F5F               SBCI    R21, 255
   \   00000012   2F28               MOV     R18, R24
   \   00000014   018D               MOVW    R17:R16, R27:R26
   \   00000016   01FA               MOVW    R31:R30, R21:R20
   \   00000018   9145               LPM     R20, Z+
   \   0000001A   9154               LPM     R21, Z
   \   0000001C   9731               SBIW    R31:R30, 1
   \   0000001E   01FA               MOVW    R31:R30, R21:R20
   \   00000020   9509               ICALL
     15          //?  assert(GetPort() == _v);
     16            
     17            stat = _v;
   \   00000022   938C               ST      X, R24
     18          }
   \   00000024   E0E4               LDI     R30, 4
   \   00000026   ........           JMP     ?EPILOGUE_B4_L09
     19          

   \                                 In  segment CODE, align 2, keep-with-next
     20          unsigned char DOut::Get(void)
   \                     ??Get:
     21          {
   \   00000000   93BA               ST      -Y, R27
   \   00000002   93AA               ST      -Y, R26
   \   00000004   01D8               MOVW    R27:R26, R17:R16
     22          //  assert(0x01 >= GetPort());
     23            
     24            stat = GetPort();// & 0x01;
   \   00000006   9611               ADIW    R27:R26, 1
   \   00000008   91ED               LD      R30, X+
   \   0000000A   91FC               LD      R31, X
   \   0000000C   9712               SBIW    R27:R26, 2
   \   0000000E   9634               ADIW    R31:R30, 4
   \   00000010   018D               MOVW    R17:R16, R27:R26
   \   00000012   9125               LPM     R18, Z+
   \   00000014   9134               LPM     R19, Z
   \   00000016   9731               SBIW    R31:R30, 1
   \   00000018   01F9               MOVW    R31:R30, R19:R18
   \   0000001A   9509               ICALL
   \   0000001C   930C               ST      X, R16
     25            
     26            return stat;
   \   0000001E   910C               LD      R16, X
   \   00000020   91A9               LD      R26, Y+
   \   00000022   91B9               LD      R27, Y+
   \   00000024   9508               RET
     27          }
     28          

   \                                 In  segment CODE, align 2, keep-with-next
     29          void DOut::Flip(unsigned char _mask)
   \                     ??Flip:
     30          {
   \   00000000   ........           CALL    ?PROLOGUE4_L09
   \   00000004   01D8               MOVW    R27:R26, R17:R16
   \   00000006   2F82               MOV     R24, R18
     31          //  assert(0x01 >= stat);
     32            
     33            Set( stat ^ _mask  );//& 0x01) );
   \   00000008   912C               LD      R18, X
   \   0000000A   2728               EOR     R18, R24
   \   0000000C   018D               MOVW    R17:R16, R27:R26
   \   0000000E   ....               RCALL   ??Set
     34          }
   \   00000010   E0E4               LDI     R30, 4
   \   00000012   ........           JMP     ?EPILOGUE_B4_L09
     35          
     36          
     37          

   \                                 In  segment CODE, align 2, keep-with-next
     38          DIn::DIn(DInEvent & _ev,unsigned char _timerInterval_MS)
   \                     ??DIn:
     39          :ev(&_ev),buff(0xff),pressed(0)
   \   00000000   EF5F               LDI     R21, 255
   \   00000002   01F8               MOVW    R31:R30, R17:R16
   \   00000004   8351               STD     Z+1, R21
   \   00000006   E050               LDI     R21, 0
   \   00000008   01F8               MOVW    R31:R30, R17:R16
   \   0000000A   8352               STD     Z+2, R21
   \   0000000C   01F8               MOVW    R31:R30, R17:R16
   \   0000000E   8323               STD     Z+3, R18
   \   00000010   8334               STD     Z+4, R19
     40          {
     41            
     42          }
   \   00000012   9508               RET
     43          

   \                                 In  segment CODE, align 2, keep-with-next
     44          DIn::DIn()
   \                     ??DIn_1:
     45          :ev(0),buff(0xff),pressed(0)
   \   00000000   EF2F               LDI     R18, 255
   \   00000002   01F8               MOVW    R31:R30, R17:R16
   \   00000004   8321               STD     Z+1, R18
   \   00000006   E020               LDI     R18, 0
   \   00000008   01F8               MOVW    R31:R30, R17:R16
   \   0000000A   8322               STD     Z+2, R18
   \   0000000C   E020               LDI     R18, 0
   \   0000000E   E030               LDI     R19, 0
   \   00000010   01F8               MOVW    R31:R30, R17:R16
   \   00000012   8323               STD     Z+3, R18
   \   00000014   8334               STD     Z+4, R19
     46          {
     47            
     48          }
   \   00000016   9508               RET
     49          

   \                                 In  segment CODE, align 2, keep-with-next
     50          char DIn::SetEvent(DInEvent & _ev)
   \                     ??SetEvent:
     51          {
   \   00000000   ........           CALL    ?PROLOGUE4_L09
   \   00000004   01D8               MOVW    R27:R26, R17:R16
   \   00000006   01C9               MOVW    R25:R24, R19:R18
     52            assert(0 == ev);
   \   00000008   01FD               MOVW    R31:R30, R27:R26
   \   0000000A   8103               LDD     R16, Z+3
   \   0000000C   8114               LDD     R17, Z+4
   \   0000000E   2B01               OR      R16, R17
   \   00000010   F051               BREQ    ??SetEvent_1
   \   00000012   E344               LDI     R20, 52
   \   00000014   E050               LDI     R21, 0
   \   00000016   ....               LDI     R18, LOW(`?<Constant "C:\\\\work\\\\TIEL_FrameWor...">`)
   \   00000018   ....               LDI     R19, (`?<Constant "C:\\\\work\\\\TIEL_FrameWor...">`) >> 8
   \   0000001A   ....               LDI     R16, LOW(`?<Constant "0 == ev">`)
   \   0000001C   ....               LDI     R17, (`?<Constant "0 == ev">`) >> 8
   \   0000001E   ........           CALL    __taabi_assert
   \   00000022   ........           CALL    __iar_EmptyStepPoint
     53            
     54            if(0 == ev)
   \                     ??SetEvent_1:
   \   00000026   01FD               MOVW    R31:R30, R27:R26
   \   00000028   8103               LDD     R16, Z+3
   \   0000002A   8114               LDD     R17, Z+4
   \   0000002C   2B01               OR      R16, R17
   \   0000002E   F429               BRNE    ??SetEvent_2
     55            {
     56              ev = &_ev;
   \   00000030   01FD               MOVW    R31:R30, R27:R26
   \   00000032   8383               STD     Z+3, R24
   \   00000034   8394               STD     Z+4, R25
     57              return 1;
   \   00000036   E001               LDI     R16, 1
   \   00000038   C001               RJMP    ??SetEvent_3
     58            }
     59            
     60            return 0;
   \                     ??SetEvent_2:
   \   0000003A   E000               LDI     R16, 0
   \                     ??SetEvent_3:
   \   0000003C   E0E4               LDI     R30, 4
   \   0000003E   ........           JMP     ?EPILOGUE_B4_L09
     61              
     62            
     63          }

   \                                 In  segment CODE, align 2, keep-with-next
     64          unsigned char DIn::Get(void)
   \                     ??Get_1:
     65          {
   \   00000000   93BA               ST      -Y, R27
   \   00000002   93AA               ST      -Y, R26
   \   00000004   01D8               MOVW    R27:R26, R17:R16
     66          
     67            return GetPort() & 0x01;
   \   00000006   9615               ADIW    R27:R26, 5
   \   00000008   91ED               LD      R30, X+
   \   0000000A   91FC               LD      R31, X
   \   0000000C   9716               SBIW    R27:R26, 6
   \   0000000E   9632               ADIW    R31:R30, 2
   \   00000010   018D               MOVW    R17:R16, R27:R26
   \   00000012   9125               LPM     R18, Z+
   \   00000014   9134               LPM     R19, Z
   \   00000016   9731               SBIW    R31:R30, 1
   \   00000018   01F9               MOVW    R31:R30, R19:R18
   \   0000001A   9509               ICALL
   \   0000001C   2F10               MOV     R17, R16
   \   0000001E   7011               ANDI    R17, 0x01
   \   00000020   2F01               MOV     R16, R17
   \   00000022   91A9               LD      R26, Y+
   \   00000024   91B9               LD      R27, Y+
   \   00000026   9508               RET
     68          //  return pressed;
     69          }

   \                                 In  segment CODE, align 2, keep-with-next
     70          void DIn::SetTimerInterval(unsigned char _timerInterval_MS)
   \                     ??SetTimerInterval:
     71          {
   \   00000000   ........           CALL    ?PROLOGUE4_L09
   \   00000004   01D8               MOVW    R27:R26, R17:R16
   \   00000006   2F82               MOV     R24, R18
     72          
     73            assert(0 != _timerInterval_MS);
   \   00000008   2388               TST     R24
   \   0000000A   F451               BRNE    ??SetTimerInterval_1
   \   0000000C   E449               LDI     R20, 73
   \   0000000E   E050               LDI     R21, 0
   \   00000010   ....               LDI     R18, LOW(`?<Constant "C:\\\\work\\\\TIEL_FrameWor...">`)
   \   00000012   ....               LDI     R19, (`?<Constant "C:\\\\work\\\\TIEL_FrameWor...">`) >> 8
   \   00000014   ....               LDI     R16, LOW(`?<Constant "0 != _timerInterval_MS">`)
   \   00000016   ....               LDI     R17, (`?<Constant "0 != _timerInterval_MS">`) >> 8
   \   00000018   ........           CALL    __taabi_assert
   \   0000001C   ........           CALL    __iar_EmptyStepPoint
     74            
     75            if(0 == _timerInterval_MS)
   \                     ??SetTimerInterval_1:
   \   00000020   2388               TST     R24
   \   00000022   F009               BREQ    ??SetTimerInterval_2
     76              return ;
     77          
     78            timerInterval_MS = _timerInterval_MS;  
   \   00000024   938C               ST      X, R24
     79            
     80          }
   \                     ??SetTimerInterval_2:
   \   00000026   E0E4               LDI     R30, 4
   \   00000028   ........           JMP     ?EPILOGUE_B4_L09
     81          
     82          // It's called ISR. 재진입 가능 함수
     83          //

   \                                 In  segment CODE, align 2, keep-with-next
     84          void DIn::evISR(void)
   \                     ??evISR:
     85          {
     86            
     87          }
   \   00000000   9508               RET
     88          
     89          
     90           //외부 타이머에 의해 호출. 비재진입 함수 

   \                                 In  segment CODE, align 2, keep-with-next
     91          void DIn::evTimerExpir(void)
   \                     ??evTimerExpir:
     92          {
   \   00000000   ........           CALL    ?PROLOGUE4_L09
   \   00000004   01C8               MOVW    R25:R24, R17:R16
     93            
     94            buff = (buff << 1) | (GetPort() & 0x01);
   \   00000006   01DC               MOVW    R27:R26, R25:R24
   \   00000008   9615               ADIW    R27:R26, 5
   \   0000000A   91ED               LD      R30, X+
   \   0000000C   91FC               LD      R31, X
   \   0000000E   9716               SBIW    R27:R26, 6
   \   00000010   9632               ADIW    R31:R30, 2
   \   00000012   018C               MOVW    R17:R16, R25:R24
   \   00000014   9125               LPM     R18, Z+
   \   00000016   9134               LPM     R19, Z
   \   00000018   9731               SBIW    R31:R30, 1
   \   0000001A   01F9               MOVW    R31:R30, R19:R18
   \   0000001C   9509               ICALL
   \   0000001E   01FC               MOVW    R31:R30, R25:R24
   \   00000020   8111               LDD     R17, Z+1
   \   00000022   0F11               LSL     R17
   \   00000024   2F20               MOV     R18, R16
   \   00000026   7021               ANDI    R18, 0x01
   \   00000028   2B12               OR      R17, R18
   \   0000002A   01FC               MOVW    R31:R30, R25:R24
   \   0000002C   8311               STD     Z+1, R17
     95            
     96            if( (buff&0x0f) == 0x0f){ //버퍼의 모든 키 값이 1이라면 노이즈가 없는 것으로 간주.
   \   0000002E   01FC               MOVW    R31:R30, R25:R24
   \   00000030   8101               LDD     R16, Z+1
   \   00000032   700F               ANDI    R16, 0x0F
   \   00000034   300F               CPI     R16, 15
   \   00000036   F4F1               BRNE    ??evTimerExpir_1
     97              if( pressed == 0)
   \   00000038   01FC               MOVW    R31:R30, R25:R24
   \   0000003A   8102               LDD     R16, Z+2
   \   0000003C   2300               TST     R16
   \   0000003E   F4B9               BRNE    ??evTimerExpir_2
     98              {
     99                //key |= FALLING; // 이전 키값이 0 이고 현재 키값이 1이므로 FALLING???
    100                if(0 != ev)
   \   00000040   01FC               MOVW    R31:R30, R25:R24
   \   00000042   8103               LDD     R16, Z+3
   \   00000044   8114               LDD     R17, Z+4
   \   00000046   2B01               OR      R16, R17
   \   00000048   F091               BREQ    ??evTimerExpir_2
    101                  ev->Changed(DInEvent::FALLING);
   \   0000004A   01FC               MOVW    R31:R30, R25:R24
   \   0000004C   81A3               LDD     R26, Z+3
   \   0000004E   81B4               LDD     R27, Z+4
   \   00000050   914D               LD      R20, X+
   \   00000052   915C               LD      R21, X
   \   00000054   9711               SBIW    R27:R26, 1
   \   00000056   5F4E               SUBI    R20, 254
   \   00000058   4F5F               SBCI    R21, 255
   \   0000005A   E021               LDI     R18, 1
   \   0000005C   01FC               MOVW    R31:R30, R25:R24
   \   0000005E   8103               LDD     R16, Z+3
   \   00000060   8114               LDD     R17, Z+4
   \   00000062   01FA               MOVW    R31:R30, R21:R20
   \   00000064   9145               LPM     R20, Z+
   \   00000066   9154               LPM     R21, Z
   \   00000068   9731               SBIW    R31:R30, 1
   \   0000006A   01FA               MOVW    R31:R30, R21:R20
   \   0000006C   9509               ICALL
    102              }
    103              pressed = 1; // 현재 키값으로 대체
   \                     ??evTimerExpir_2:
   \   0000006E   E001               LDI     R16, 1
   \   00000070   01FC               MOVW    R31:R30, R25:R24
   \   00000072   8302               STD     Z+2, R16
    104            }
    105          			 
    106            if( (buff&0x0f) == 0x00){
   \                     ??evTimerExpir_1:
   \   00000074   01FC               MOVW    R31:R30, R25:R24
   \   00000076   8101               LDD     R16, Z+1
   \   00000078   700F               ANDI    R16, 0x0F
   \   0000007A   2300               TST     R16
   \   0000007C   F4F1               BRNE    ??evTimerExpir_3
    107              if( pressed == 1)
   \   0000007E   01FC               MOVW    R31:R30, R25:R24
   \   00000080   8102               LDD     R16, Z+2
   \   00000082   3001               CPI     R16, 1
   \   00000084   F4B9               BRNE    ??evTimerExpir_4
    108              {
    109                //key |= RISING;
    110                if(0 != ev)
   \   00000086   01FC               MOVW    R31:R30, R25:R24
   \   00000088   8103               LDD     R16, Z+3
   \   0000008A   8114               LDD     R17, Z+4
   \   0000008C   2B01               OR      R16, R17
   \   0000008E   F091               BREQ    ??evTimerExpir_4
    111                  ev->Changed(DInEvent::RISING);
   \   00000090   01FC               MOVW    R31:R30, R25:R24
   \   00000092   81A3               LDD     R26, Z+3
   \   00000094   81B4               LDD     R27, Z+4
   \   00000096   914D               LD      R20, X+
   \   00000098   915C               LD      R21, X
   \   0000009A   9711               SBIW    R27:R26, 1
   \   0000009C   5F4E               SUBI    R20, 254
   \   0000009E   4F5F               SBCI    R21, 255
   \   000000A0   E020               LDI     R18, 0
   \   000000A2   01FC               MOVW    R31:R30, R25:R24
   \   000000A4   8103               LDD     R16, Z+3
   \   000000A6   8114               LDD     R17, Z+4
   \   000000A8   01FA               MOVW    R31:R30, R21:R20
   \   000000AA   9145               LPM     R20, Z+
   \   000000AC   9154               LPM     R21, Z
   \   000000AE   9731               SBIW    R31:R30, 1
   \   000000B0   01FA               MOVW    R31:R30, R21:R20
   \   000000B2   9509               ICALL
    112              }
    113               pressed = 0;
   \                     ??evTimerExpir_4:
   \   000000B4   E000               LDI     R16, 0
   \   000000B6   01FC               MOVW    R31:R30, R25:R24
   \   000000B8   8302               STD     Z+2, R16
    114            }
    115              
    116          }
   \                     ??evTimerExpir_3:
   \   000000BA   E0E4               LDI     R30, 4
   \   000000BC   ........           JMP     ?EPILOGUE_B4_L09

   \                                 In  segment NEAR_ID, align 1, keep-with-next
   \                     `?<Initializer for <Constant "0 == ev">>`:
   \   00000000   20303D3D6520       DC8 "0 == ev"
   \              0076        

   \                                 In  segment NEAR_ID, align 1, keep-with-next
   \                     `?<Initializer for <Constant "C:\\\\work\\\\TIEL_Fr`:
   \   00000000   3A43775C726F       DC8 "C:\\work\\TIEL_FrameWork\\Basic_Component\\dio.cpp"
   \              5C6B49544C45
   \              465F6172656D
   \              6F576B72425C
   \              73616369435F
   \              6D6F6F70656E
   \              746E645C6F69
   \              632E707000  

   \                                 In  segment NEAR_ID, align 1, keep-with-next
   \                     `?<Initializer for <Constant "0 != _timerInterv`:
   \   00000000   20303D215F20       DC8 "0 != _timerInterval_MS"
   \              6974656D4972
   \              746E72656176
   \              5F6C534D00  

   \                                 In  segment NEAR_I, align 1, keep-with-next
   \   00000000                      REQUIRE `?<Segment init: NEAR_I>`
   \                     `?<Constant "0 == ev">`:
   \   00000000                      DS8 8
   \   00000008                      REQUIRE `?<Initializer for <Constant "0 == ev">>`

   \                                 In  segment NEAR_I, align 1, keep-with-next
   \   00000000                      REQUIRE `?<Segment init: NEAR_I>`
   \                     `?<Constant "C:\\\\work\\\\TIEL_FrameWor...">`:
   \   00000000                      DS8 47
   \   0000002F                      REQUIRE `?<Initializer for <Constant "C:\\\\work\\\\TIEL_Fr`

   \                                 In  segment NEAR_I, align 1, keep-with-next
   \   00000000                      REQUIRE `?<Segment init: NEAR_I>`
   \                     `?<Constant "0 != _timerInterval_MS">`:
   \   00000000                      DS8 23
   \   00000017                      REQUIRE `?<Initializer for <Constant "0 != _timerInterv`

   \                                 In  segment CODE, align 2, keep-with-next
   \   __nearfunc __version_3 DOut *DOut::new DOut()
   \                     `??new DOut`:
   \   00000000   E003               LDI     R16, 3
   \   00000002   E010               LDI     R17, 0
   \   00000004   ........           CALL    `??operator new`
   \   00000008   0198               MOVW    R19:R18, R17:R16
   \   0000000A   2B01               OR      R16, R17
   \   0000000C   F019               BREQ    `??new DOut_1`
   \   0000000E   0189               MOVW    R17:R16, R19:R18
   \   00000010   ....               RCALL   ??DOut
   \   00000012   9508               RET
   \                     `??new DOut_1`:
   \   00000014   E000               LDI     R16, 0
   \   00000016   E010               LDI     R17, 0
   \   00000018   9508               RET

   \                                 In  segment CODE, align 2, keep-with-next
   \   __nearfunc __version_3 DIn *DIn::new DIn(DInEvent &, unsigned char)
   \                     `??new DIn`:
   \   00000000   ........           CALL    ?PROLOGUE3_L09
   \   00000004   01C8               MOVW    R25:R24, R17:R16
   \   00000006   2FA2               MOV     R26, R18
   \   00000008   E007               LDI     R16, 7
   \   0000000A   E010               LDI     R17, 0
   \   0000000C   ........           CALL    `??operator new`
   \   00000010   01B8               MOVW    R23:R22, R17:R16
   \   00000012   2B01               OR      R16, R17
   \   00000014   F029               BREQ    `??new DIn_2`
   \   00000016   2F4A               MOV     R20, R26
   \   00000018   019C               MOVW    R19:R18, R25:R24
   \   0000001A   018B               MOVW    R17:R16, R23:R22
   \   0000001C   ....               RCALL   ??DIn
   \   0000001E   C002               RJMP    `??new DIn_3`
   \                     `??new DIn_2`:
   \   00000020   E000               LDI     R16, 0
   \   00000022   E010               LDI     R17, 0
   \                     `??new DIn_3`:
   \   00000024   E0E3               LDI     R30, 3
   \   00000026   ........           JMP     ?EPILOGUE_B3_L09

   \                                 In  segment CODE, align 2, keep-with-next
   \   __nearfunc __version_3 DIn *DIn::new DIn()
   \                     `??new DIn_1`:
   \   00000000   E007               LDI     R16, 7
   \   00000002   E010               LDI     R17, 0
   \   00000004   ........           CALL    `??operator new`
   \   00000008   0198               MOVW    R19:R18, R17:R16
   \   0000000A   2B01               OR      R16, R17
   \   0000000C   F019               BREQ    `??new DIn_4`
   \   0000000E   0189               MOVW    R17:R16, R19:R18
   \   00000010   ....               RCALL   ??DIn_1
   \   00000012   9508               RET
   \                     `??new DIn_4`:
   \   00000014   E000               LDI     R16, 0
   \   00000016   E010               LDI     R17, 0
   \   00000018   9508               RET

   Maximum stack usage in bytes:

     Function                       CSTACK RSTACK
     --------                       ------ ------
     DIn::DIn()                         0      2
     DIn::DIn(DInEvent &, unsigned char)
                                        0      2
     DIn::Get()                         2      2
       ->   Indirect call               2      2
     DIn::SetEvent(DInEvent &)          4      2
       -> __taabi_assert                4      2
       -> __iar_EmptyStepPoint          4      2
     DIn::SetTimerInterval(unsigned char)
                                        4      2
       -> __taabi_assert                4      2
       -> __iar_EmptyStepPoint          4      2
     DIn::evISR()                       0      2
     DIn::evTimerExpir()                4      2
       ->   Indirect call               4      2
       ->   Indirect call               4      2
       ->   Indirect call               4      2
     DIn::new DIn()                     0      2
       -> operator new(unsigned int)
                                        0      2
       -> DIn::DIn()                    0      2
     DIn::new DIn(DInEvent &, unsigned char)
                                        3      2
       -> operator new(unsigned int)
                                        3      2
       -> DIn::DIn(DInEvent &, unsigned char)
                                        3      2
     DOut::DOut()                       0      2
     DOut::Flip(unsigned char)          4      2
       -> DOut::Set(unsigned char)      4      2
     DOut::Get()                        2      2
       ->   Indirect call               2      2
     DOut::Set(unsigned char)           4      2
       ->   Indirect call               4      2
     DOut::new DOut()                   0      2
       -> operator new(unsigned int)
                                        0      2
       -> DOut::DOut()                  0      2


   Segment part sizes:

     Function/Label                                 Bytes
     --------------                                 -----
     DOut::DOut()                                      8
     DOut::Set(unsigned char)                         42
     DOut::Get()                                      38
     DOut::Flip(unsigned char)                        22
     DIn::DIn(DInEvent &, unsigned char)
                                                      20
     DIn::DIn()                                       24
     DIn::SetEvent(DInEvent &)                        66
     DIn::Get()                                       40
     DIn::SetTimerInterval(unsigned char)
                                                      44
     DIn::evISR()                                      2
     DIn::evTimerExpir()                             192
     ?<Initializer for <Constant "0 == ev">>           8
     ?<Initializer for <Constant "C:\\work\\TIEL_Fr   47
     ?<Initializer for <Constant "0 != _timerInterv   23
     ?<Constant "0 == ev">                             8
     ?<Constant "C:\\work\\TIEL_FrameWor...">         47
     ?<Constant "0 != _timerInterval_MS">             23
     DOut::new DOut()                                 26
     DIn::new DIn(DInEvent &, unsigned char)
                                                      42
     DIn::new DIn()                                   26
      Others                                           7

 
 592 bytes in segment CODE
   7 bytes in segment INITTAB
  78 bytes in segment NEAR_I
  78 bytes in segment NEAR_ID
 
 670 bytes of CODE memory (+ 7 bytes shared)
  78 bytes of DATA memory

Errors: none
Warnings: none
