###############################################################################
#                                                                             #
# IAR C/C++ Compiler V5.50.0.50277/W32 for Atmel AVR    20/Dec/2013  10:32:44 #
# Copyright (C) 1996-2010 IAR Systems AB.                                     #
#                                                                             #
#    Source file  =  C:\work\TIEL_FrameWork\BSP\MC_E02SMB_v1_3\dio_adaptor.cp #
#                    p                                                        #
#    Command line =  C:\work\TIEL_FrameWork\BSP\MC_E02SMB_v1_3\dio_adaptor.cp #
#                    p --cpu=m128 -ms -o C:\work\ATmega128_Debug\Obj\ -D      #
#                    xNDEBUG -D xWATCHDOG_ENABLE -lC                          #
#                    C:\work\ATmega128_Debug\List\ -y                         #
#                    --initializers_in_flash -z2 --no_cse --no_inline         #
#                    --no_code_motion --no_cross_call --no_clustering         #
#                    --no_tbaa --cross_call_passes=2 --debug                  #
#                    -DENABLE_BIT_DEFINITIONS --do_cross_call -e -I ./\ -I    #
#                    C:\work\ -I C:\work/TIEL_FrameWork/Basic_Component\ -I   #
#                    C:\work/TIEL_FrameWork/BSP/MC_E02SMB_v1_3\ -I            #
#                    C:\work/TIEL_FrameWork/Common\ -I                        #
#                    C:\work/TIEL_FrameWork/Configuration\ -I                 #
#                    C:\work/TIEL_FrameWork/CPU/AVR_Driver\ -I                #
#                    C:\work/TIEL_FrameWork/Driver_Interface\ -I              #
#                    C:\work/TIEL_FrameWork/Drivers\ -I                       #
#                    C:\work/TIEL_FrameWork/Service\ -I                       #
#                    C:\work/TIEL_FrameWork/System\ -I                        #
#                    C:\work/TIEL_FrameWork/Test\ -I                          #
#                    C:\work/TIEL_FrameWork/Utils\ -I C:\work/BUILD_COUNT\    #
#                    -I "C:\Program Files\IAR Systems\Embedded Workbench      #
#                    5.4\avr\INC\" -I "C:\Program Files\IAR Systems\Embedded  #
#                    Workbench 5.4\avr\INC\DLIB\" --eeprom_size 4096 --eec++  #
#                    --dlib_config "C:\Program Files\IAR Systems\Embedded     #
#                    Workbench 5.4\avr\LIB\DLIB\dlAVR-3s-ec_mul-n.h"          #
#    List file    =  C:\work\ATmega128_Debug\List\dio_adaptor.lst             #
#    Object file  =  C:\work\ATmega128_Debug\Obj\dio_adaptor.r90              #
#                                                                             #
#                                                                             #
###############################################################################

C:\work\TIEL_FrameWork\BSP\MC_E02SMB_v1_3\dio_adaptor.cpp
      1          #include "dio_adaptor.h"

   \                                 In  segment CODE, align 2, keep-with-next
   \   __nearfunc __version_3 DOut::~DOut()
   \                     `?~DOut`:
   \   00000000   939A               ST      -Y, R25
   \   00000002   938A               ST      -Y, R24
   \   00000004   01C8               MOVW    R25:R24, R17:R16
   \   00000006   2F08               MOV     R16, R24
   \   00000008   2B09               OR      R16, R25
   \   0000000A   F031               BREQ    `?~DOut_1`
   \   0000000C   2F02               MOV     R16, R18
   \   0000000E   FF00               SBRS    R16, 0
   \   00000010   C003               RJMP    `?~DOut_1`
   \   00000012   018C               MOVW    R17:R16, R25:R24
   \   00000014   ........           CALL    `??operator delete`
   \                     `?~DOut_1`:
   \   00000018   9189               LD      R24, Y+
   \   0000001A   9199               LD      R25, Y+
   \   0000001C   9508               RET

   \                                 In  segment CODE, align 2, keep-with-next
   \   __nearfunc __version_3 DIn::~DIn()
   \                     `?~DIn`:
   \   00000000   939A               ST      -Y, R25
   \   00000002   938A               ST      -Y, R24
   \   00000004   01C8               MOVW    R25:R24, R17:R16
   \   00000006   2F08               MOV     R16, R24
   \   00000008   2B09               OR      R16, R25
   \   0000000A   F031               BREQ    `?~DIn_1`
   \   0000000C   2F02               MOV     R16, R18
   \   0000000E   FF00               SBRS    R16, 0
   \   00000010   C003               RJMP    `?~DIn_1`
   \   00000012   018C               MOVW    R17:R16, R25:R24
   \   00000014   ........           CALL    `??operator delete`
   \                     `?~DIn_1`:
   \   00000018   9189               LD      R24, Y+
   \   0000001A   9199               LD      R25, Y+
   \   0000001C   9508               RET

   \                                 In  segment CODE, align 2, keep-with-next
   \   __nearfunc __version_3 Led::~Led()
   \                     `?~Led`:
   \   00000000   ........           CALL    ?PROLOGUE4_L09
   \   00000004   01C8               MOVW    R25:R24, R17:R16
   \   00000006   01D9               MOVW    R27:R26, R19:R18
   \   00000008   2F08               MOV     R16, R24
   \   0000000A   2B09               OR      R16, R25
   \   0000000C   F059               BREQ    `?~Led_1`
   \   0000000E   E020               LDI     R18, 0
   \   00000010   E030               LDI     R19, 0
   \   00000012   018C               MOVW    R17:R16, R25:R24
   \   00000014   ........           CALL    `?~DOut`
   \   00000018   2F0A               MOV     R16, R26
   \   0000001A   FF00               SBRS    R16, 0
   \   0000001C   C003               RJMP    `?~Led_1`
   \   0000001E   018C               MOVW    R17:R16, R25:R24
   \   00000020   ........           CALL    `??operator delete`
   \                     `?~Led_1`:
   \   00000024   E0E4               LDI     R30, 4
   \   00000026   ........           JMP     ?EPILOGUE_B4_L09

   \                                 In  segment CODE, align 2, keep-with-next
   \   __nearfunc __version_3 E02SMBLed::~E02SMBLed()
   \                     `?~E02SMBLed`:
   \   00000000   ........           CALL    ?PROLOGUE4_L09
   \   00000004   01C8               MOVW    R25:R24, R17:R16
   \   00000006   01D9               MOVW    R27:R26, R19:R18
   \   00000008   2F08               MOV     R16, R24
   \   0000000A   2B09               OR      R16, R25
   \   0000000C   F059               BREQ    `?~E02SMBLed_1`
   \   0000000E   E020               LDI     R18, 0
   \   00000010   E030               LDI     R19, 0
   \   00000012   018C               MOVW    R17:R16, R25:R24
   \   00000014   ........           CALL    `?~Led`
   \   00000018   2F0A               MOV     R16, R26
   \   0000001A   FF00               SBRS    R16, 0
   \   0000001C   C003               RJMP    `?~E02SMBLed_1`
   \   0000001E   018C               MOVW    R17:R16, R25:R24
   \   00000020   ........           CALL    `??operator delete`
   \                     `?~E02SMBLed_1`:
   \   00000024   E0E4               LDI     R30, 4
   \   00000026   ........           JMP     ?EPILOGUE_B4_L09

   \                                 In  segment CODE, align 2, keep-with-next
   \   __nearfunc __version_3 DigialIn::~DigialIn()
   \                     `?~DigialIn`:
   \   00000000   ........           CALL    ?PROLOGUE4_L09
   \   00000004   01C8               MOVW    R25:R24, R17:R16
   \   00000006   01D9               MOVW    R27:R26, R19:R18
   \   00000008   2F08               MOV     R16, R24
   \   0000000A   2B09               OR      R16, R25
   \   0000000C   F059               BREQ    `?~DigialIn_1`
   \   0000000E   E020               LDI     R18, 0
   \   00000010   E030               LDI     R19, 0
   \   00000012   018C               MOVW    R17:R16, R25:R24
   \   00000014   ........           CALL    `?~DIn`
   \   00000018   2F0A               MOV     R16, R26
   \   0000001A   FF00               SBRS    R16, 0
   \   0000001C   C003               RJMP    `?~DigialIn_1`
   \   0000001E   018C               MOVW    R17:R16, R25:R24
   \   00000020   ........           CALL    `??operator delete`
   \                     `?~DigialIn_1`:
   \   00000024   E0E4               LDI     R30, 4
   \   00000026   ........           JMP     ?EPILOGUE_B4_L09
      2          
      3          #include <assert.h>
      4          #include <ioavr.h>

   \                                 In  segment ABSOLUTE, at 0x31
   \   <__C17> volatile __io _A_DDRD
   \                     _A_DDRD:
   \   00000000                      DS8 1

   \                                 In  segment ABSOLUTE, at 0x32
   \   <__C18> volatile __io _A_PORTD
   \                     _A_PORTD:
   \   00000000                      DS8 1

   \                                 In  segment ABSOLUTE, at 0x63
   \   <__C60> volatile __io _A_PING
   \                     _A_PING:
   \   00000000                      DS8 1

   \                                 In  segment ABSOLUTE, at 0x64
   \   <__C61> volatile __io _A_DDRG
   \                     _A_DDRG:
   \   00000000                      DS8 1
      5          
      6          #define E02SMB_LED_DDR   DDRD
      7          #define E02SMB_LED_PORT  PORTD
      8          #define E02SMB_LED_PIN   PIND
      9          #define E02SMB_LED_PORT_MASK 0xf0
     10          

   \                                 In  segment CODE, align 2, keep-with-next
     11          E02SMBLed::E02SMBLed()
   \                     ??E02SMBLed:
   \   00000000   93BA               ST      -Y, R27
   \   00000002   93AA               ST      -Y, R26
   \   00000004   01D8               MOVW    R27:R26, R17:R16
     12          {
   \   00000006   018D               MOVW    R17:R16, R27:R26
   \   00000008   ........           CALL    ??Led
   \   0000000C   ....               LDI     R16, LOW(??__vtbl)
   \   0000000E   ....               LDI     R17, (??__vtbl) >> 8
   \   00000010   9611               ADIW    R27:R26, 1
   \   00000012   930D               ST      X+, R16
   \   00000014   931C               ST      X, R17
   \   00000016   9712               SBIW    R27:R26, 2
     13            E02SMB_LED_DDR |= E02SMB_LED_PORT_MASK;  
   \   00000018   B301               IN      R16, 0x11
   \   0000001A   6F00               ORI     R16, 0xF0
   \   0000001C   BB01               OUT     0x11, R16
     14            
     15            SetPort(0);    
   \   0000001E   E020               LDI     R18, 0
   \   00000020   018D               MOVW    R17:R16, R27:R26
   \   00000022   ....               RCALL   ??SetPort
     16          }
   \   00000024   018D               MOVW    R17:R16, R27:R26
   \   00000026   91A9               LD      R26, Y+
   \   00000028   91B9               LD      R27, Y+
   \   0000002A   9508               RET
   \   0000002C                      REQUIRE _A_DDRD
     17          

   \                                 In  segment CODE, align 2, keep-with-next
     18          void E02SMBLed::SetPort(unsigned char _v)
   \                     ??SetPort:
     19          {
   \   00000000   ........           CALL    ?PROLOGUE4_L09
   \   00000004   01D8               MOVW    R27:R26, R17:R16
   \   00000006   2F82               MOV     R24, R18
     20            assert( (E02SMB_LED_DDR & E02SMB_LED_PORT_MASK) == E02SMB_LED_PORT_MASK);
   \   00000008   B301               IN      R16, 0x11
   \   0000000A   7F00               ANDI    R16, 0xF0
   \   0000000C   3F00               CPI     R16, 240
   \   0000000E   F051               BREQ    ??SetPort_1
   \   00000010   E144               LDI     R20, 20
   \   00000012   E050               LDI     R21, 0
   \   00000014   ....               LDI     R18, LOW(`?<Constant "C:\\\\work\\\\TIEL_FrameWor...">`)
   \   00000016   ....               LDI     R19, (`?<Constant "C:\\\\work\\\\TIEL_FrameWor...">`) >> 8
   \   00000018   ....               LDI     R16, LOW(`?<Constant "(E02SMB_LED_DDR & E02...">`)
   \   0000001A   ....               LDI     R17, (`?<Constant "(E02SMB_LED_DDR & E02...">`) >> 8
   \   0000001C   ........           CALL    __taabi_assert
   \   00000020   ........           CALL    __iar_EmptyStepPoint
     21          //  assert(0x0f >= _v);
     22            
     23            _v = _v & 0x0f;
   \                     ??SetPort_1:
   \   00000024   708F               ANDI    R24, 0x0F
     24            
     25            E02SMB_LED_PORT = ~((E02SMB_LED_PORT & 0x0f) | ( _v  << 4));
   \   00000026   B312               IN      R17, 0x12
   \   00000028   701F               ANDI    R17, 0x0F
   \   0000002A   2F08               MOV     R16, R24
   \   0000002C   9502               SWAP    R16
   \   0000002E   7F00               ANDI    R16, 0xF0
   \   00000030   2B10               OR      R17, R16
   \   00000032   9510               COM     R17
   \   00000034   BB12               OUT     0x12, R17
     26            
     27          }
   \   00000036   E0E4               LDI     R30, 4
   \   00000038   ........           JMP     ?EPILOGUE_B4_L09
   \   0000003C                      REQUIRE _A_DDRD
   \   0000003C                      REQUIRE _A_PORTD
     28          

   \                                 In  segment CODE, align 2, keep-with-next
     29          unsigned char E02SMBLed::GetPort(void)
   \                     ??GetPort:
     30          {
   \   00000000   939A               ST      -Y, R25
   \   00000002   938A               ST      -Y, R24
   \   00000004   01C8               MOVW    R25:R24, R17:R16
     31          
     32            assert( (E02SMB_LED_DDR & E02SMB_LED_PORT_MASK) == E02SMB_LED_PORT_MASK);
   \   00000006   B301               IN      R16, 0x11
   \   00000008   7F00               ANDI    R16, 0xF0
   \   0000000A   3F00               CPI     R16, 240
   \   0000000C   F051               BREQ    ??GetPort_2
   \   0000000E   E240               LDI     R20, 32
   \   00000010   E050               LDI     R21, 0
   \   00000012   ....               LDI     R18, LOW(`?<Constant "C:\\\\work\\\\TIEL_FrameWor...">`)
   \   00000014   ....               LDI     R19, (`?<Constant "C:\\\\work\\\\TIEL_FrameWor...">`) >> 8
   \   00000016   ....               LDI     R16, LOW(`?<Constant "(E02SMB_LED_DDR & E02...">`)
   \   00000018   ....               LDI     R17, (`?<Constant "(E02SMB_LED_DDR & E02...">`) >> 8
   \   0000001A   ........           CALL    __taabi_assert
   \   0000001E   ........           CALL    __iar_EmptyStepPoint
     33            
     34            return ~( E02SMB_LED_PORT >> 4);
   \                     ??GetPort_2:
   \   00000022   B302               IN      R16, 0x12
   \   00000024   9502               SWAP    R16
   \   00000026   700F               ANDI    R16, 0x0F
   \   00000028   9500               COM     R16
   \   0000002A   9189               LD      R24, Y+
   \   0000002C   9199               LD      R25, Y+
   \   0000002E   9508               RET
   \   00000030                      REQUIRE _A_DDRD
   \   00000030                      REQUIRE _A_PORTD
     35            
     36          }
     37          
     38          
     39          
     40          #define DIGITAL_IN_DDR   DDRG
     41          #define DIGITAL_IN_PORT  PORTG
     42          #define DIGITAL_IN_PIN   PING
     43          #define DIGITAL_IN_PORT_NUM 3
     44          

   \                                 In  segment CODE, align 2, keep-with-next
     45          DigialIn::DigialIn(DInEvent & _ev)
   \                     ??DigialIn:
   \   00000000   ........           CALL    ?PROLOGUE4_L09
   \   00000004   01D8               MOVW    R27:R26, R17:R16
   \   00000006   01C9               MOVW    R25:R24, R19:R18
     46          :DIn(_ev,50)
     47          {
   \   00000008   E342               LDI     R20, 50
   \   0000000A   019C               MOVW    R19:R18, R25:R24
   \   0000000C   018D               MOVW    R17:R16, R27:R26
   \   0000000E   ........           CALL    ??DIn
   \   00000012   ....               LDI     R16, LOW(??__vtbl_1)
   \   00000014   ....               LDI     R17, (??__vtbl_1) >> 8
   \   00000016   01FD               MOVW    R31:R30, R27:R26
   \   00000018   8305               STD     Z+5, R16
   \   0000001A   8316               STD     Z+6, R17
     48            DIGITAL_IN_DDR &= ~(1 << DIGITAL_IN_PORT_NUM);   //clear
   \   0000001C   91000064           LDS     R16, 100
   \   00000020   7F07               ANDI    R16, 0xF7
   \   00000022   93000064           STS     100, R16
     49            
     50            
     51            //ISR
     52          }
   \   00000026   018D               MOVW    R17:R16, R27:R26
   \   00000028   E0E4               LDI     R30, 4
   \   0000002A   ........           JMP     ?EPILOGUE_B4_L09
   \   0000002E                      REQUIRE _A_DDRG

   \                                 In  segment CODE, align 2, keep-with-next
     53          DigialIn::DigialIn()
   \                     ??DigialIn_1:
   \   00000000   93BA               ST      -Y, R27
   \   00000002   93AA               ST      -Y, R26
   \   00000004   01D8               MOVW    R27:R26, R17:R16
     54          {
   \   00000006   018D               MOVW    R17:R16, R27:R26
   \   00000008   ........           CALL    ??DIn_1
   \   0000000C   ....               LDI     R16, LOW(??__vtbl_1)
   \   0000000E   ....               LDI     R17, (??__vtbl_1) >> 8
   \   00000010   9615               ADIW    R27:R26, 5
   \   00000012   930D               ST      X+, R16
   \   00000014   931C               ST      X, R17
   \   00000016   9716               SBIW    R27:R26, 6
     55            DIGITAL_IN_DDR &= ~(1 << DIGITAL_IN_PORT_NUM);   //clear
   \   00000018   91000064           LDS     R16, 100
   \   0000001C   7F07               ANDI    R16, 0xF7
   \   0000001E   93000064           STS     100, R16
     56          }
   \   00000022   018D               MOVW    R17:R16, R27:R26
   \   00000024   91A9               LD      R26, Y+
   \   00000026   91B9               LD      R27, Y+
   \   00000028   9508               RET
   \   0000002A                      REQUIRE _A_DDRG
     57          

   \                                 In  segment CODE, align 2, keep-with-next
     58          unsigned char DigialIn::GetPort(void)
   \                     ??GetPort_1:
     59          {
   \   00000000   939A               ST      -Y, R25
   \   00000002   938A               ST      -Y, R24
   \   00000004   01C8               MOVW    R25:R24, R17:R16
     60            assert( 0 == ( DIGITAL_IN_DDR & (1 << DIGITAL_IN_PORT_NUM) ));
   \   00000006   9100....           LDS     R16, _A_DDRG
   \   0000000A   2F10               MOV     R17, R16
   \   0000000C   FF13               SBRS    R17, 3
   \   0000000E   C00A               RJMP    ??GetPort_3
   \   00000010   E34C               LDI     R20, 60
   \   00000012   E050               LDI     R21, 0
   \   00000014   ....               LDI     R18, LOW(`?<Constant "C:\\\\work\\\\TIEL_FrameWor...">`)
   \   00000016   ....               LDI     R19, (`?<Constant "C:\\\\work\\\\TIEL_FrameWor...">`) >> 8
   \   00000018   ....               LDI     R16, LOW(`?<Constant "0 == ( DIGITAL_IN_DDR...">`)
   \   0000001A   ....               LDI     R17, (`?<Constant "0 == ( DIGITAL_IN_DDR...">`) >> 8
   \   0000001C   ........           CALL    __taabi_assert
   \   00000020   ........           CALL    __iar_EmptyStepPoint
     61           
     62            if(  DIGITAL_IN_PIN & ( 1 << DIGITAL_IN_PORT_NUM ) )
   \                     ??GetPort_3:
   \   00000024   9100....           LDS     R16, _A_PING
   \   00000028   2F10               MOV     R17, R16
   \   0000002A   FF13               SBRS    R17, 3
   \   0000002C   C002               RJMP    ??GetPort_4
     63            {
     64              return 1;
   \   0000002E   E001               LDI     R16, 1
   \   00000030   C001               RJMP    ??GetPort_5
     65            }
     66            else
     67            {
     68              return 0; 
   \                     ??GetPort_4:
   \   00000032   E000               LDI     R16, 0
   \                     ??GetPort_5:
   \   00000034   9189               LD      R24, Y+
   \   00000036   9199               LD      R25, Y+
   \   00000038   9508               RET
   \   0000003A                      REQUIRE _A_PING
   \   0000003A                      REQUIRE _A_DDRG
     69            }     
     70            
     71          }

   \                                 In  segment NEAR_ID, align 1, keep-with-next
   \                     `?<Initializer for <Constant "(E02SMB_LED_DDR &`:
   \   00000000   452832304D53       DC8 28H, 45H, 30H, 32H, 53H, 4DH, 42H, 5FH
   \              5F42        
   \   00000008   454C5F444444       DC8 4CH, 45H, 44H, 5FH, 44H, 44H, 52H, 20H
   \              2052        
   \   00000010   202630455332       DC8 26H, 20H, 45H, 30H, 32H, 53H, 4DH, 42H
   \              424D        
   \   00000018   4C5F4445505F       DC8 5FH, 4CH, 45H, 44H, 5FH, 50H, 4FH, 52H
   \              524F        
   \   00000020   5F54414D4B53       DC8 54H, 5FH, 4DH, 41H, 53H, 4BH, 29H, 20H
   \              2029        
   \   00000028   3D3D45203230       DC8 3DH, 3DH, 20H, 45H, 30H, 32H, 53H, 4DH
   \              4D53        
   \   00000030   5F42454C5F44       DC8 42H, 5FH, 4CH, 45H, 44H, 5FH, 50H, 4FH
   \              4F50        
   \   00000038   54524D5F5341       DC8 52H, 54H, 5FH, 4DH, 41H, 53H, 4BH, 0
   \              004B        

   \                                 In  segment NEAR_ID, align 1, keep-with-next
   \                     `?<Initializer for <Constant "C:\\\\work\\\\TIEL_Fr`:
   \   00000000   3A43775C726F       DC8 43H, 3AH, 5CH, 77H, 6FH, 72H, 6BH, 5CH
   \              5C6B        
   \   00000008   49544C45465F       DC8 54H, 49H, 45H, 4CH, 5FH, 46H, 72H, 61H
   \              6172        
   \   00000010   656D6F576B72       DC8 6DH, 65H, 57H, 6FH, 72H, 6BH, 5CH, 42H
   \              425C        
   \   00000018   50534D5C5F43       DC8 53H, 50H, 5CH, 4DH, 43H, 5FH, 45H, 30H
   \              3045        
   \   00000020   5332424D765F       DC8 32H, 53H, 4DH, 42H, 5FH, 76H, 31H, 5FH
   \              5F31        
   \   00000028   5C3369645F6F       DC8 33H, 5CH, 64H, 69H, 6FH, 5FH, 61H, 64H
   \              6461        
   \   00000030   70616F742E72       DC8 61H, 70H, 74H, 6FH, 72H, 2EH, 63H, 70H
   \              7063        
   \   00000038   0070               DC8 70H, 0

   \                                 In  segment NEAR_ID, align 1, keep-with-next
   \                     `?<Initializer for <Constant "0 == ( DIGITAL_IN`:
   \   00000000   20303D3D2820       DC8 30H, 20H, 3DH, 3DH, 20H, 28H, 20H, 44H
   \              4420        
   \   00000008   474954494C41       DC8 49H, 47H, 49H, 54H, 41H, 4CH, 5FH, 49H
   \              495F        
   \   00000010   5F4E44442052       DC8 4EH, 5FH, 44H, 44H, 52H, 20H, 26H, 20H
   \              2026        
   \   00000018   31283C20203C       DC8 28H, 31H, 20H, 3CH, 3CH, 20H, 44H, 49H
   \              4944        
   \   00000020   494741545F4C       DC8 47H, 49H, 54H, 41H, 4CH, 5FH, 49H, 4EH
   \              4E49        
   \   00000028   505F524F5F54       DC8 5FH, 50H, 4FH, 52H, 54H, 5FH, 4EH, 55H
   \              554E        
   \   00000030   294D292000         DC8 4DH, 29H, 20H, 29H, 0

   \                                 In  segment NEAR_I, align 1, keep-with-next
   \   00000000                      REQUIRE `?<Segment init: NEAR_I>`
   \                     `?<Constant "(E02SMB_LED_DDR & E02...">`:
   \   00000000                      DS8 64
   \   00000040                      REQUIRE `?<Initializer for <Constant "(E02SMB_LED_DDR &`

   \                                 In  segment NEAR_I, align 1, keep-with-next
   \   00000000                      REQUIRE `?<Segment init: NEAR_I>`
   \                     `?<Constant "C:\\\\work\\\\TIEL_FrameWor...">`:
   \   00000000                      DS8 58
   \   0000003A                      REQUIRE `?<Initializer for <Constant "C:\\\\work\\\\TIEL_Fr`

   \                                 In  segment NEAR_I, align 1, keep-with-next
   \   00000000                      REQUIRE `?<Segment init: NEAR_I>`
   \                     `?<Constant "0 == ( DIGITAL_IN_DDR...">`:
   \   00000000                      DS8 53
   \   00000035                      REQUIRE `?<Initializer for <Constant "0 == ( DIGITAL_IN`

   \                                 In  segment CODE, align 2, keep-with-next
   \   __nearfunc __version_3 E02SMBLed *E02SMBLed::new E02SMBLed()
   \                     `??new E02SMBLed`:
   \   00000000   E00D               LDI     R16, 13
   \   00000002   E010               LDI     R17, 0
   \   00000004   ........           CALL    `??operator new`
   \   00000008   0198               MOVW    R19:R18, R17:R16
   \   0000000A   2B01               OR      R16, R17
   \   0000000C   F019               BREQ    `??new E02SMBLed_1`
   \   0000000E   0189               MOVW    R17:R16, R19:R18
   \   00000010   ....               RCALL   ??E02SMBLed
   \   00000012   9508               RET
   \                     `??new E02SMBLed_1`:
   \   00000014   E000               LDI     R16, 0
   \   00000016   E010               LDI     R17, 0
   \   00000018   9508               RET

   \                                 In  segment CODE, align 2, keep-with-next
   \   __nearfunc __version_3 DigialIn *DigialIn::new DigialIn(DInEvent &)
   \                     `??new DigialIn`:
   \   00000000   939A               ST      -Y, R25
   \   00000002   938A               ST      -Y, R24
   \   00000004   01C8               MOVW    R25:R24, R17:R16
   \   00000006   E007               LDI     R16, 7
   \   00000008   E010               LDI     R17, 0
   \   0000000A   ........           CALL    `??operator new`
   \   0000000E   01A8               MOVW    R21:R20, R17:R16
   \   00000010   2B01               OR      R16, R17
   \   00000012   F021               BREQ    `??new DigialIn_2`
   \   00000014   019C               MOVW    R19:R18, R25:R24
   \   00000016   018A               MOVW    R17:R16, R21:R20
   \   00000018   ....               RCALL   ??DigialIn
   \   0000001A   C002               RJMP    `??new DigialIn_3`
   \                     `??new DigialIn_2`:
   \   0000001C   E000               LDI     R16, 0
   \   0000001E   E010               LDI     R17, 0
   \                     `??new DigialIn_3`:
   \   00000020   9189               LD      R24, Y+
   \   00000022   9199               LD      R25, Y+
   \   00000024   9508               RET

   \                                 In  segment CODE, align 2, keep-with-next
   \   __nearfunc __version_3 DigialIn *DigialIn::new DigialIn()
   \                     `??new DigialIn_1`:
   \   00000000   E007               LDI     R16, 7
   \   00000002   E010               LDI     R17, 0
   \   00000004   ........           CALL    `??operator new`
   \   00000008   0198               MOVW    R19:R18, R17:R16
   \   0000000A   2B01               OR      R16, R17
   \   0000000C   F019               BREQ    `??new DigialIn_4`
   \   0000000E   0189               MOVW    R17:R16, R19:R18
   \   00000010   ....               RCALL   ??DigialIn_1
   \   00000012   9508               RET
   \                     `??new DigialIn_4`:
   \   00000014   E000               LDI     R16, 0
   \   00000016   E010               LDI     R17, 0
   \   00000018   9508               RET

   Maximum stack usage in bytes:

     Function                       CSTACK RSTACK
     --------                       ------ ------
     DIn::~DIn()                        2      2
       -> operator delete(void *)       2      2
     DOut::~DOut()                      2      2
       -> operator delete(void *)       2      2
     DigialIn::DigialIn()               2      2
       -> DIn::DIn()                    2      2
     DigialIn::DigialIn(DInEvent &)     4      2
       -> DIn::DIn(DInEvent &, unsigned char)
                                        4      2
     DigialIn::GetPort()                2      2
       -> __taabi_assert                2      2
       -> __iar_EmptyStepPoint          2      2
     DigialIn::new DigialIn()           0      2
       -> operator new(unsigned int)
                                        0      2
       -> DigialIn::DigialIn()          0      2
     DigialIn::new DigialIn(DInEvent &)
                                        2      2
       -> operator new(unsigned int)
                                        2      2
       -> DigialIn::DigialIn(DInEvent &)
                                        2      2
     DigialIn::~DigialIn()              4      2
       -> DIn::~DIn()                   4      2
       -> operator delete(void *)       4      2
     E02SMBLed::E02SMBLed()             2      2
       -> Led::Led()                    2      2
       -> E02SMBLed::SetPort(unsigned char)
                                        2      2
     E02SMBLed::GetPort()               2      2
       -> __taabi_assert                2      2
       -> __iar_EmptyStepPoint          2      2
     E02SMBLed::SetPort(unsigned char)
                                        4      2
       -> __taabi_assert                4      2
       -> __iar_EmptyStepPoint          4      2
     E02SMBLed::new E02SMBLed()         0      2
       -> operator new(unsigned int)
                                        0      2
       -> E02SMBLed::E02SMBLed()        0      2
     E02SMBLed::~E02SMBLed()            4      2
       -> Led::~Led()                   4      2
       -> operator delete(void *)       4      2
     Led::~Led()                        4      2
       -> DOut::~DOut()                 4      2
       -> operator delete(void *)       4      2


   Segment part sizes:

     Function/Label                                 Bytes
     --------------                                 -----
     DOut::~DOut()                                    30
     DIn::~DIn()                                      30
     Led::~Led()                                      42
     E02SMBLed::~E02SMBLed()                          42
     DigialIn::~DigialIn()                            42
     _A_DDRD                                           1
     _A_PORTD                                          1
     _A_PING                                           1
     _A_DDRG                                           1
     E02SMBLed::E02SMBLed()                           44
     E02SMBLed::SetPort(unsigned char)
                                                      60
     E02SMBLed::GetPort()                             48
     DigialIn::DigialIn(DInEvent &)                   46
     DigialIn::DigialIn()                             42
     DigialIn::GetPort()                              58
     ?<Initializer for <Constant "(E02SMB_LED_DDR &   64
     ?<Initializer for <Constant "C:\\work\\TIEL_Fr   58
     ?<Initializer for <Constant "0 == ( DIGITAL_IN   53
     ?<Constant "(E02SMB_LED_DDR & E02...">           64
     ?<Constant "C:\\work\\TIEL_FrameWor...">         58
     ?<Constant "0 == ( DIGITAL_IN_DDR...">           53
     E02SMBLed::new E02SMBLed()                       26
     DigialIn::new DigialIn(DInEvent &)
                                                      38
     DigialIn::new DigialIn()                         26
      Others                                          17

 
   4 bytes in segment ABSOLUTE
 574 bytes in segment CODE
   7 bytes in segment INITTAB
  10 bytes in segment NEAR_F
 175 bytes in segment NEAR_I
 175 bytes in segment NEAR_ID
 
 563 bytes of CODE memory (+ 203 bytes shared)
 175 bytes of DATA memory (+   4 bytes shared)

Errors: none
Warnings: none
