###############################################################################
#                                                                             #
# IAR C/C++ Compiler V5.50.0.50277/W32 for Atmel AVR    20/Dec/2013  11:52:02 #
# Copyright (C) 1996-2010 IAR Systems AB.                                     #
#                                                                             #
#    Source file  =  C:\work\APP\Term_Project\Term_Project_s.cpp              #
#    Command line =  C:\work\APP\Term_Project\Term_Project_s.cpp --cpu=m128   #
#                    -ms -o C:\work\ATmega128_Debug\Obj\ -D xNDEBUG -D        #
#                    xWATCHDOG_ENABLE -lC C:\work\ATmega128_Debug\List\ -y    #
#                    --initializers_in_flash -z2 --no_cse --no_inline         #
#                    --no_code_motion --no_cross_call --no_clustering         #
#                    --no_tbaa --cross_call_passes=2 --debug                  #
#                    -DENABLE_BIT_DEFINITIONS --do_cross_call -e -I ./\ -I    #
#                    C:\work\ -I C:\work/TIEL_FrameWork/Basic_Component\ -I   #
#                    C:\work/TIEL_FrameWork/BSP/MC_E02SMB_v1_3\ -I            #
#                    C:\work/TIEL_FrameWork/Common\ -I                        #
#                    C:\work/TIEL_FrameWork/Configuration\ -I                 #
#                    C:\work/TIEL_FrameWork/CPU/AVR_Driver\ -I                #
#                    C:\work/TIEL_FrameWork/Driver_Interface\ -I              #
#                    C:\work/TIEL_FrameWork/Drivers\ -I                       #
#                    C:\work/TIEL_FrameWork/Service\ -I                       #
#                    C:\work/TIEL_FrameWork/System\ -I                        #
#                    C:\work/TIEL_FrameWork/Test\ -I                          #
#                    C:\work/TIEL_FrameWork/Utils\ -I C:\work/BUILD_COUNT\    #
#                    -I "C:\Program Files\IAR Systems\Embedded Workbench      #
#                    5.4\avr\INC\" -I "C:\Program Files\IAR Systems\Embedded  #
#                    Workbench 5.4\avr\INC\DLIB\" --eeprom_size 4096 --eec++  #
#                    --dlib_config "C:\Program Files\IAR Systems\Embedded     #
#                    Workbench 5.4\avr\LIB\DLIB\dlAVR-3s-ec_mul-n.h"          #
#    List file    =  C:\work\ATmega128_Debug\List\Term_Project_s.lst          #
#    Object file  =  C:\work\ATmega128_Debug\Obj\Term_Project_s.r90           #
#                                                                             #
#                                                                             #
###############################################################################

C:\work\APP\Term_Project\Term_Project_s.cpp
      1          #include "Term_Project_s.h"

   \                                 In  segment CODE, align 2, keep-with-next
   \   __nearfunc __version_3 ITimerEvent::ITimerEvent(unsigned char, unsigned short)
   \                     ??ITimerEvent:
   \   00000000   01F8               MOVW    R31:R30, R17:R16
   \   00000002   8320               ST      Z, R18
   \   00000004   01F8               MOVW    R31:R30, R17:R16
   \   00000006   8341               STD     Z+1, R20
   \   00000008   8352               STD     Z+2, R21
   \   0000000A   E030               LDI     R19, 0
   \   0000000C   01F8               MOVW    R31:R30, R17:R16
   \   0000000E   8335               STD     Z+5, R19
   \   00000010   9508               RET

   \                                 In  segment CODE, align 2, keep-with-next
   \   __nearfunc __version_3 ITimerEvent::~ITimerEvent()
   \                     `?~ITimerEvent`:
   \   00000000   939A               ST      -Y, R25
   \   00000002   938A               ST      -Y, R24
   \   00000004   01C8               MOVW    R25:R24, R17:R16
   \   00000006   2F08               MOV     R16, R24
   \   00000008   2B09               OR      R16, R25
   \   0000000A   F031               BREQ    `?~ITimerEvent_1`
   \   0000000C   2F02               MOV     R16, R18
   \   0000000E   FF00               SBRS    R16, 0
   \   00000010   C003               RJMP    `?~ITimerEvent_1`
   \   00000012   018C               MOVW    R17:R16, R25:R24
   \   00000014   ........           CALL    `??operator delete`
   \                     `?~ITimerEvent_1`:
   \   00000018   9189               LD      R24, Y+
   \   0000001A   9199               LD      R25, Y+
   \   0000001C   9508               RET

   \                                 In  segment CODE, align 2, keep-with-next
   \   __nearfunc __version_3 void ITimerEvent::Resume()
   \                     ??Resume:
   \   00000000   E021               LDI     R18, 1
   \   00000002   01F8               MOVW    R31:R30, R17:R16
   \   00000004   8325               STD     Z+5, R18
   \   00000006   9508               RET

   \                                 In  segment CODE, align 2, keep-with-next
   \   __nearfunc __version_3 SerialEvent::SerialEvent()
   \                     ??SerialEvent:
   \   00000000   9508               RET

   \                                 In  segment CODE, align 2, keep-with-next
   \   __nearfunc __version_3 SerialEvent::~SerialEvent()
   \                     `?~SerialEvent`:
   \   00000000   939A               ST      -Y, R25
   \   00000002   938A               ST      -Y, R24
   \   00000004   01C8               MOVW    R25:R24, R17:R16
   \   00000006   2F08               MOV     R16, R24
   \   00000008   2B09               OR      R16, R25
   \   0000000A   F031               BREQ    `?~SerialEvent_1`
   \   0000000C   2F02               MOV     R16, R18
   \   0000000E   FF00               SBRS    R16, 0
   \   00000010   C003               RJMP    `?~SerialEvent_1`
   \   00000012   018C               MOVW    R17:R16, R25:R24
   \   00000014   ........           CALL    `??operator delete`
   \                     `?~SerialEvent_1`:
   \   00000018   9189               LD      R24, Y+
   \   0000001A   9199               LD      R25, Y+
   \   0000001C   9508               RET

   \                                 In  segment CODE, align 2, keep-with-next
   \   __nearfunc __version_3 DInEvent::DInEvent()
   \                     ??DInEvent:
   \   00000000   9508               RET

   \                                 In  segment CODE, align 2, keep-with-next
   \   __nearfunc __version_3 DInEvent::~DInEvent()
   \                     `?~DInEvent`:
   \   00000000   939A               ST      -Y, R25
   \   00000002   938A               ST      -Y, R24
   \   00000004   01C8               MOVW    R25:R24, R17:R16
   \   00000006   2F08               MOV     R16, R24
   \   00000008   2B09               OR      R16, R25
   \   0000000A   F031               BREQ    `?~DInEvent_1`
   \   0000000C   2F02               MOV     R16, R18
   \   0000000E   FF00               SBRS    R16, 0
   \   00000010   C003               RJMP    `?~DInEvent_1`
   \   00000012   018C               MOVW    R17:R16, R25:R24
   \   00000014   ........           CALL    `??operator delete`
   \                     `?~DInEvent_1`:
   \   00000018   9189               LD      R24, Y+
   \   0000001A   9199               LD      R25, Y+
   \   0000001C   9508               RET

   \                                 In  segment CODE, align 2, keep-with-next
   \   __nearfunc __version_3 AdcEvent::AdcEvent()
   \                     ??AdcEvent:
   \   00000000   9508               RET

   \                                 In  segment CODE, align 2, keep-with-next
   \   __nearfunc __version_3 AdcEvent::~AdcEvent()
   \                     `?~AdcEvent`:
   \   00000000   939A               ST      -Y, R25
   \   00000002   938A               ST      -Y, R24
   \   00000004   01C8               MOVW    R25:R24, R17:R16
   \   00000006   2F08               MOV     R16, R24
   \   00000008   2B09               OR      R16, R25
   \   0000000A   F031               BREQ    `?~AdcEvent_1`
   \   0000000C   2F02               MOV     R16, R18
   \   0000000E   FF00               SBRS    R16, 0
   \   00000010   C003               RJMP    `?~AdcEvent_1`
   \   00000012   018C               MOVW    R17:R16, R25:R24
   \   00000014   ........           CALL    `??operator delete`
   \                     `?~AdcEvent_1`:
   \   00000018   9189               LD      R24, Y+
   \   0000001A   9199               LD      R25, Y+
   \   0000001C   9508               RET

    CreateWatchDog();
    ^
"C:\work\TIEL_FrameWork\Driver_Interface\DriverFactory.h",80  Warning[Pe837]: 
          omission of explicit type is nonstandard ("int" assumed)

   \                                 In  segment CODE, align 2, keep-with-next
   \   __nearfunc __version_3 void SystemManager::Exit()
   \                     ??Exit:
   \   00000000   9508               RET

   \                                 In  segment CODE, align 2, keep-with-next
   \   __nearfunc __version_3 Term_Project_s::~Term_Project_s()
   \                     `?~Term_Project_s`:
   \   00000000   ........           CALL    ?PROLOGUE4_L09
   \   00000004   01C8               MOVW    R25:R24, R17:R16
   \   00000006   01D9               MOVW    R27:R26, R19:R18
   \   00000008   2F08               MOV     R16, R24
   \   0000000A   2B09               OR      R16, R25
   \   0000000C   F059               BREQ    `?~Term_Project_s_1`
   \   0000000E   E020               LDI     R18, 0
   \   00000010   E030               LDI     R19, 0
   \   00000012   018C               MOVW    R17:R16, R25:R24
   \   00000014   ........           CALL    `?~SystemManager`
   \   00000018   2F0A               MOV     R16, R26
   \   0000001A   FF00               SBRS    R16, 0
   \   0000001C   C003               RJMP    `?~Term_Project_s_1`
   \   0000001E   018C               MOVW    R17:R16, R25:R24
   \   00000020   ........           CALL    `??operator delete`
   \                     `?~Term_Project_s_1`:
   \   00000024   E0E4               LDI     R30, 4
   \   00000026   ........           JMP     ?EPILOGUE_B4_L09
      2          #include <cassert>
      3          #include <cstring>
      4          #include "BCComponentManager.h"
      5          
      6          
      7          #include "CalClkFuncGen.h"

   \                                 In  segment CODE, align 2, keep-with-next
   \   __nearfunc __version_3 IPwmOut::IPwmOut()
   \                     ??IPwmOut:
   \   00000000   9508               RET

   \                                 In  segment CODE, align 2, keep-with-next
   \   __nearfunc __version_3 IPwmOut::~IPwmOut()
   \                     `?~IPwmOut`:
   \   00000000   939A               ST      -Y, R25
   \   00000002   938A               ST      -Y, R24
   \   00000004   01C8               MOVW    R25:R24, R17:R16
   \   00000006   2F08               MOV     R16, R24
   \   00000008   2B09               OR      R16, R25
   \   0000000A   F031               BREQ    `?~IPwmOut_1`
   \   0000000C   2F02               MOV     R16, R18
   \   0000000E   FF00               SBRS    R16, 0
   \   00000010   C003               RJMP    `?~IPwmOut_1`
   \   00000012   018C               MOVW    R17:R16, R25:R24
   \   00000014   ........           CALL    `??operator delete`
   \                     `?~IPwmOut_1`:
   \   00000018   9189               LD      R24, Y+
   \   0000001A   9199               LD      R25, Y+
   \   0000001C   9508               RET

   \                                 In  segment CODE, align 2, keep-with-next
   \   __nearfunc __version_3 IStringOut::IStringOut()
   \                     ??IStringOut:
   \   00000000   9508               RET

   \                                 In  segment CODE, align 2, keep-with-next
   \   __nearfunc __version_3 IStringOut::~IStringOut()
   \                     `?~IStringOut`:
   \   00000000   939A               ST      -Y, R25
   \   00000002   938A               ST      -Y, R24
   \   00000004   01C8               MOVW    R25:R24, R17:R16
   \   00000006   2F08               MOV     R16, R24
   \   00000008   2B09               OR      R16, R25
   \   0000000A   F031               BREQ    `?~IStringOut_1`
   \   0000000C   2F02               MOV     R16, R18
   \   0000000E   FF00               SBRS    R16, 0
   \   00000010   C003               RJMP    `?~IStringOut_1`
   \   00000012   018C               MOVW    R17:R16, R25:R24
   \   00000014   ........           CALL    `??operator delete`
   \                     `?~IStringOut_1`:
   \   00000018   9189               LD      R24, Y+
   \   0000001A   9199               LD      R25, Y+
   \   0000001C   9508               RET
      8          

   \                                 In  segment CODE, align 2, keep-with-next
      9          class myTimer1s : public ITimerEvent
   \   __nearfunc __version_3 myTimer1s::~myTimer1s()
   \                     `?~myTimer1s`:
   \   00000000   ........           CALL    ?PROLOGUE4_L09
   \   00000004   01C8               MOVW    R25:R24, R17:R16
   \   00000006   01D9               MOVW    R27:R26, R19:R18
   \   00000008   2F08               MOV     R16, R24
   \   0000000A   2B09               OR      R16, R25
   \   0000000C   F059               BREQ    `?~myTimer1s_1`
   \   0000000E   E020               LDI     R18, 0
   \   00000010   E030               LDI     R19, 0
   \   00000012   018C               MOVW    R17:R16, R25:R24
   \   00000014   ........           CALL    `?~ITimerEvent`
   \   00000018   2F0A               MOV     R16, R26
   \   0000001A   FF00               SBRS    R16, 0
   \   0000001C   C003               RJMP    `?~myTimer1s_1`
   \   0000001E   018C               MOVW    R17:R16, R25:R24
   \   00000020   ........           CALL    `??operator delete`
   \                     `?~myTimer1s_1`:
   \   00000024   E0E4               LDI     R30, 4
   \   00000026   ........           JMP     ?EPILOGUE_B4_L09
     10          {
     11            Led          * led;
     12            CalClkFuncGen * ccf;
     13          
     14          public:

   \                                 In  segment CODE, align 2, keep-with-next
     15            myTimer1s(void)
   \                     ??myTimer1s:
   \   00000000   93BA               ST      -Y, R27
   \   00000002   93AA               ST      -Y, R26
   \   00000004   01D8               MOVW    R27:R26, R17:R16
     16              :ITimerEvent(0,1000) // 1000ms
     17            {
   \   00000006   EE48               LDI     R20, 232
   \   00000008   E053               LDI     R21, 3
   \   0000000A   E020               LDI     R18, 0
   \   0000000C   018D               MOVW    R17:R16, R27:R26
   \   0000000E   ........           CALL    ??ITimerEvent
   \   00000012   ....               LDI     R16, LOW(??__vtbl)
   \   00000014   ....               LDI     R17, (??__vtbl) >> 8
   \   00000016   9616               ADIW    R27:R26, 6
   \   00000018   930D               ST      X+, R16
   \   0000001A   931C               ST      X, R17
   \   0000001C   9717               SBIW    R27:R26, 7
     18              
     19            }
   \   0000001E   018D               MOVW    R17:R16, R27:R26
   \   00000020   91A9               LD      R26, Y+
   \   00000022   91B9               LD      R27, Y+
   \   00000024   9508               RET

   \                                 In  segment CODE, align 2, keep-with-next
     20            void SetLed(Led * _led)
   \                     ??SetLed:
     21            {
     22              led = _led;
   \   00000000   01F8               MOVW    R31:R30, R17:R16
   \   00000002   8720               STD     Z+8, R18
   \   00000004   8731               STD     Z+9, R19
     23            }
   \   00000006   9508               RET
     24            

   \                                 In  segment CODE, align 2, keep-with-next
     25            void SetCalClkFuncGen(CalClkFuncGen *_ccf)
   \                     ??SetCalClkFuncGen:
     26            {
   \   00000000   ........           CALL    ?PROLOGUE4_L09
   \   00000004   01C8               MOVW    R25:R24, R17:R16
   \   00000006   01D9               MOVW    R27:R26, R19:R18
     27              assert(0 != _ccf);
   \   00000008   2F0A               MOV     R16, R26
   \   0000000A   2B0B               OR      R16, R27
   \   0000000C   F451               BRNE    ??SetCalClkFuncGen_5
   \   0000000E   E14B               LDI     R20, 27
   \   00000010   E050               LDI     R21, 0
   \   00000012   ....               LDI     R18, LOW(`?<Constant "C:\\\\work\\\\APP\\\\Term_Proj...">`)
   \   00000014   ....               LDI     R19, (`?<Constant "C:\\\\work\\\\APP\\\\Term_Proj...">`) >> 8
   \   00000016   ....               LDI     R16, LOW(`?<Constant "0 != _ccf">`)
   \   00000018   ....               LDI     R17, (`?<Constant "0 != _ccf">`) >> 8
   \   0000001A   ........           CALL    __taabi_assert
   \   0000001E   ........           CALL    __iar_EmptyStepPoint
     28              
     29              ccf = _ccf;
   \                     ??SetCalClkFuncGen_5:
   \   00000022   01FC               MOVW    R31:R30, R25:R24
   \   00000024   87A2               STD     Z+10, R26
   \   00000026   87B3               STD     Z+11, R27
     30            }
   \   00000028   E0E4               LDI     R30, 4
   \   0000002A   ........           JMP     ?EPILOGUE_B4_L09
     31          protected:  

   \                                 In  segment CODE, align 2, keep-with-next
     32            void  TimeOutEvent(void)
   \                     ??TimeOutEvent:
     33            {
   \   00000000   93BA               ST      -Y, R27
   \   00000002   93AA               ST      -Y, R26
   \   00000004   01D8               MOVW    R27:R26, R17:R16
     34                if(0 != led)
   \   00000006   9618               ADIW    R27:R26, 8
   \   00000008   910D               LD      R16, X+
   \   0000000A   911C               LD      R17, X
   \   0000000C   9719               SBIW    R27:R26, 9
   \   0000000E   2B01               OR      R16, R17
   \   00000010   F039               BREQ    ??TimeOutEvent_2
     35                  led->Flip(0x01);
   \   00000012   E021               LDI     R18, 1
   \   00000014   9618               ADIW    R27:R26, 8
   \   00000016   910D               LD      R16, X+
   \   00000018   911C               LD      R17, X
   \   0000001A   9719               SBIW    R27:R26, 9
   \   0000001C   ........           CALL    ??Flip
     36                
     37                if(0 != ccf){
   \                     ??TimeOutEvent_2:
   \   00000020   961A               ADIW    R27:R26, 10
   \   00000022   910D               LD      R16, X+
   \   00000024   911C               LD      R17, X
   \   00000026   971B               SBIW    R27:R26, 11
   \   00000028   2B01               OR      R16, R17
   \   0000002A   F031               BREQ    ??TimeOutEvent_3
     38                  ccf->tm1s();
   \   0000002C   961A               ADIW    R27:R26, 10
   \   0000002E   910D               LD      R16, X+
   \   00000030   911C               LD      R17, X
   \   00000032   971B               SBIW    R27:R26, 11
   \   00000034   ........           CALL    ??tm1s
     39                }
     40              
     41            }
   \                     ??TimeOutEvent_3:
   \   00000038   91A9               LD      R26, Y+
   \   0000003A   91B9               LD      R27, Y+
   \   0000003C   9508               RET
     42          
     43          };
     44          

   \                                 In  segment CODE, align 2, keep-with-next
     45          class myTimer500ms : public ITimerEvent
   \   __nearfunc __version_3 myTimer500ms::~myTimer500ms()
   \                     `?~myTimer500ms`:
   \   00000000   ........           CALL    ?PROLOGUE4_L09
   \   00000004   01C8               MOVW    R25:R24, R17:R16
   \   00000006   01D9               MOVW    R27:R26, R19:R18
   \   00000008   2F08               MOV     R16, R24
   \   0000000A   2B09               OR      R16, R25
   \   0000000C   F059               BREQ    `?~myTimer500ms_1`
   \   0000000E   E020               LDI     R18, 0
   \   00000010   E030               LDI     R19, 0
   \   00000012   018C               MOVW    R17:R16, R25:R24
   \   00000014   ........           CALL    `?~ITimerEvent`
   \   00000018   2F0A               MOV     R16, R26
   \   0000001A   FF00               SBRS    R16, 0
   \   0000001C   C003               RJMP    `?~myTimer500ms_1`
   \   0000001E   018C               MOVW    R17:R16, R25:R24
   \   00000020   ........           CALL    `??operator delete`
   \                     `?~myTimer500ms_1`:
   \   00000024   E0E4               LDI     R30, 4
   \   00000026   ........           JMP     ?EPILOGUE_B4_L09
     46          {
     47            Led          * led;
     48            CalClkFuncGen * ccf;
     49          
     50          public:

   \                                 In  segment CODE, align 2, keep-with-next
     51            myTimer500ms(void)
   \                     ??myTimer500ms:
   \   00000000   93BA               ST      -Y, R27
   \   00000002   93AA               ST      -Y, R26
   \   00000004   01D8               MOVW    R27:R26, R17:R16
     52              :ITimerEvent(0,500) // 500ms
     53            {
   \   00000006   EF44               LDI     R20, 244
   \   00000008   E051               LDI     R21, 1
   \   0000000A   E020               LDI     R18, 0
   \   0000000C   018D               MOVW    R17:R16, R27:R26
   \   0000000E   ........           CALL    ??ITimerEvent
   \   00000012   ....               LDI     R16, LOW(??__vtbl_1)
   \   00000014   ....               LDI     R17, (??__vtbl_1) >> 8
   \   00000016   9616               ADIW    R27:R26, 6
   \   00000018   930D               ST      X+, R16
   \   0000001A   931C               ST      X, R17
   \   0000001C   9717               SBIW    R27:R26, 7
     54              
     55            }
   \   0000001E   018D               MOVW    R17:R16, R27:R26
   \   00000020   91A9               LD      R26, Y+
   \   00000022   91B9               LD      R27, Y+
   \   00000024   9508               RET

   \                                 In  segment CODE, align 2, keep-with-next
     56            void SetLed(Led * _led)
   \                     ??SetLed_1:
     57            {
     58              led = _led;
   \   00000000   01F8               MOVW    R31:R30, R17:R16
   \   00000002   8720               STD     Z+8, R18
   \   00000004   8731               STD     Z+9, R19
     59            }
   \   00000006   9508               RET
     60            

   \                                 In  segment CODE, align 2, keep-with-next
     61            void SetCalClkFuncGen(CalClkFuncGen *_ccf)
   \                     ??SetCalClkFuncGen_1:
     62            {
   \   00000000   ........           CALL    ?PROLOGUE4_L09
   \   00000004   01C8               MOVW    R25:R24, R17:R16
   \   00000006   01D9               MOVW    R27:R26, R19:R18
     63              assert(0 != _ccf);
   \   00000008   2F0A               MOV     R16, R26
   \   0000000A   2B0B               OR      R16, R27
   \   0000000C   F451               BRNE    ??SetCalClkFuncGen_6
   \   0000000E   E34F               LDI     R20, 63
   \   00000010   E050               LDI     R21, 0
   \   00000012   ....               LDI     R18, LOW(`?<Constant "C:\\\\work\\\\APP\\\\Term_Proj...">`)
   \   00000014   ....               LDI     R19, (`?<Constant "C:\\\\work\\\\APP\\\\Term_Proj...">`) >> 8
   \   00000016   ....               LDI     R16, LOW(`?<Constant "0 != _ccf">`)
   \   00000018   ....               LDI     R17, (`?<Constant "0 != _ccf">`) >> 8
   \   0000001A   ........           CALL    __taabi_assert
   \   0000001E   ........           CALL    __iar_EmptyStepPoint
     64              
     65              ccf = _ccf;
   \                     ??SetCalClkFuncGen_6:
   \   00000022   01FC               MOVW    R31:R30, R25:R24
   \   00000024   87A2               STD     Z+10, R26
   \   00000026   87B3               STD     Z+11, R27
     66            }
   \   00000028   E0E4               LDI     R30, 4
   \   0000002A   ........           JMP     ?EPILOGUE_B4_L09
     67          protected:  

   \                                 In  segment CODE, align 2, keep-with-next
     68            void  TimeOutEvent(void)
   \                     ??TimeOutEvent_1:
     69            {
   \   00000000   93BA               ST      -Y, R27
   \   00000002   93AA               ST      -Y, R26
   \   00000004   01D8               MOVW    R27:R26, R17:R16
     70                if(0 != led)
   \   00000006   9618               ADIW    R27:R26, 8
   \   00000008   910D               LD      R16, X+
   \   0000000A   911C               LD      R17, X
   \   0000000C   9719               SBIW    R27:R26, 9
   \   0000000E   2B01               OR      R16, R17
   \   00000010   F039               BREQ    ??TimeOutEvent_4
     71                  led->Flip(0x02);
   \   00000012   E022               LDI     R18, 2
   \   00000014   9618               ADIW    R27:R26, 8
   \   00000016   910D               LD      R16, X+
   \   00000018   911C               LD      R17, X
   \   0000001A   9719               SBIW    R27:R26, 9
   \   0000001C   ........           CALL    ??Flip
     72                
     73                if(0 != ccf){
   \                     ??TimeOutEvent_4:
   \   00000020   961A               ADIW    R27:R26, 10
   \   00000022   910D               LD      R16, X+
   \   00000024   911C               LD      R17, X
   \   00000026   971B               SBIW    R27:R26, 11
   \   00000028   2B01               OR      R16, R17
   \   0000002A   F031               BREQ    ??TimeOutEvent_5
     74                  ccf->tm500ms();
   \   0000002C   961A               ADIW    R27:R26, 10
   \   0000002E   910D               LD      R16, X+
   \   00000030   911C               LD      R17, X
   \   00000032   971B               SBIW    R27:R26, 11
   \   00000034   ........           CALL    ??tm500ms
     75                }
     76              
     77            }
   \                     ??TimeOutEvent_5:
   \   00000038   91A9               LD      R26, Y+
   \   0000003A   91B9               LD      R27, Y+
   \   0000003C   9508               RET
     78          
     79          };

   \                                 In  segment CODE, align 2, keep-with-next
     80          class mySWEvent:public DInEvent
   \   __nearfunc __version_3 mySWEvent::mySWEvent()
   \                     ??mySWEvent:
   \   00000000   93BA               ST      -Y, R27
   \   00000002   93AA               ST      -Y, R26
   \   00000004   01D8               MOVW    R27:R26, R17:R16
   \   00000006   018D               MOVW    R17:R16, R27:R26
   \   00000008   ........           CALL    ??DInEvent
   \   0000000C   ....               LDI     R16, LOW(??__vtbl_2)
   \   0000000E   ....               LDI     R17, (??__vtbl_2) >> 8
   \   00000010   930D               ST      X+, R16
   \   00000012   931C               ST      X, R17
   \   00000014   9711               SBIW    R27:R26, 1
   \   00000016   018D               MOVW    R17:R16, R27:R26
   \   00000018   91A9               LD      R26, Y+
   \   0000001A   91B9               LD      R27, Y+
   \   0000001C   9508               RET

   \                                 In  segment CODE, align 2, keep-with-next
   \   __nearfunc __version_3 mySWEvent::~mySWEvent()
   \                     `?~mySWEvent`:
   \   00000000   ........           CALL    ?PROLOGUE4_L09
   \   00000004   01C8               MOVW    R25:R24, R17:R16
   \   00000006   01D9               MOVW    R27:R26, R19:R18
   \   00000008   2F08               MOV     R16, R24
   \   0000000A   2B09               OR      R16, R25
   \   0000000C   F059               BREQ    `?~mySWEvent_1`
   \   0000000E   E020               LDI     R18, 0
   \   00000010   E030               LDI     R19, 0
   \   00000012   018C               MOVW    R17:R16, R25:R24
   \   00000014   ........           CALL    `?~DInEvent`
   \   00000018   2F0A               MOV     R16, R26
   \   0000001A   FF00               SBRS    R16, 0
   \   0000001C   C003               RJMP    `?~mySWEvent_1`
   \   0000001E   018C               MOVW    R17:R16, R25:R24
   \   00000020   ........           CALL    `??operator delete`
   \                     `?~mySWEvent_1`:
   \   00000024   E0E4               LDI     R30, 4
   \   00000026   ........           JMP     ?EPILOGUE_B4_L09
     81          {
     82             Led    * led;
     83             CalClkFuncGen *ccf;
     84          
     85          public:

   \                                 In  segment CODE, align 2, keep-with-next
     86            void SetLed(Led * _led)
   \                     ??SetLed_2:
     87            {
     88              led = _led;
   \   00000000   01F8               MOVW    R31:R30, R17:R16
   \   00000002   8322               STD     Z+2, R18
   \   00000004   8333               STD     Z+3, R19
     89            } 
   \   00000006   9508               RET
     90            

   \                                 In  segment CODE, align 2, keep-with-next
     91            void SetCalClkFuncGen(CalClkFuncGen *_ccf)
   \                     ??SetCalClkFuncGen_2:
     92            {
   \   00000000   ........           CALL    ?PROLOGUE4_L09
   \   00000004   01C8               MOVW    R25:R24, R17:R16
   \   00000006   01D9               MOVW    R27:R26, R19:R18
     93              assert(0 != _ccf);
   \   00000008   2F0A               MOV     R16, R26
   \   0000000A   2B0B               OR      R16, R27
   \   0000000C   F451               BRNE    ??SetCalClkFuncGen_7
   \   0000000E   E54D               LDI     R20, 93
   \   00000010   E050               LDI     R21, 0
   \   00000012   ....               LDI     R18, LOW(`?<Constant "C:\\\\work\\\\APP\\\\Term_Proj...">`)
   \   00000014   ....               LDI     R19, (`?<Constant "C:\\\\work\\\\APP\\\\Term_Proj...">`) >> 8
   \   00000016   ....               LDI     R16, LOW(`?<Constant "0 != _ccf">`)
   \   00000018   ....               LDI     R17, (`?<Constant "0 != _ccf">`) >> 8
   \   0000001A   ........           CALL    __taabi_assert
   \   0000001E   ........           CALL    __iar_EmptyStepPoint
     94              
     95              ccf = _ccf;
   \                     ??SetCalClkFuncGen_7:
   \   00000022   01FC               MOVW    R31:R30, R25:R24
   \   00000024   83A4               STD     Z+4, R26
   \   00000026   83B5               STD     Z+5, R27
     96            }  
   \   00000028   E0E4               LDI     R30, 4
   \   0000002A   ........           JMP     ?EPILOGUE_B4_L09
     97          protected:

   \                                 In  segment CODE, align 2, keep-with-next
     98            void Changed(const EDGE _edge)
   \                     ??Changed:
     99            {
   \   00000000   ........           CALL    ?PROLOGUE4_L09
   \   00000004   01D8               MOVW    R27:R26, R17:R16
   \   00000006   2F82               MOV     R24, R18
    100              
    101              if(DInEvent::RISING == _edge)
   \   00000008   2388               TST     R24
   \   0000000A   F461               BRNE    ??Changed_1
    102              {
    103                if(0 != led){
    104          //        led->Blink(1);
    105                }
    106                if(0 != ccf){
   \   0000000C   9614               ADIW    R27:R26, 4
   \   0000000E   910D               LD      R16, X+
   \   00000010   911C               LD      R17, X
   \   00000012   9715               SBIW    R27:R26, 5
   \   00000014   2B01               OR      R16, R17
   \   00000016   F031               BREQ    ??Changed_1
    107                  ccf->Switch();
   \   00000018   9614               ADIW    R27:R26, 4
   \   0000001A   910D               LD      R16, X+
   \   0000001C   911C               LD      R17, X
   \   0000001E   9715               SBIW    R27:R26, 5
   \   00000020   ........           CALL    ??Switch
    108                }      
    109                
    110              }
    111              
    112          
    113            }
   \                     ??Changed_1:
   \   00000024   E0E4               LDI     R30, 4
   \   00000026   ........           JMP     ?EPILOGUE_B4_L09
    114            
    115          };
    116          class myAdcAdaptor: public AdcEvent{
    117            
    118            CalClkFuncGen *ccf;
    119          
    120          public:

   \                                 In  segment CODE, align 2, keep-with-next
    121            myAdcAdaptor(){}
   \                     ??myAdcAdaptor:
   \   00000000   93BA               ST      -Y, R27
   \   00000002   93AA               ST      -Y, R26
   \   00000004   01D8               MOVW    R27:R26, R17:R16
   \   00000006   018D               MOVW    R17:R16, R27:R26
   \   00000008   ........           CALL    ??AdcEvent
   \   0000000C   ....               LDI     R16, LOW(??__vtbl_3)
   \   0000000E   ....               LDI     R17, (??__vtbl_3) >> 8
   \   00000010   930D               ST      X+, R16
   \   00000012   931C               ST      X, R17
   \   00000014   9711               SBIW    R27:R26, 1
   \   00000016   018D               MOVW    R17:R16, R27:R26
   \   00000018   91A9               LD      R26, Y+
   \   0000001A   91B9               LD      R27, Y+
   \   0000001C   9508               RET

   \                                 In  segment CODE, align 2, keep-with-next
    122            virtual ~myAdcAdaptor(){}
   \                     `?~myAdcAdaptor`:
   \   00000000   ........           CALL    ?PROLOGUE4_L09
   \   00000004   01C8               MOVW    R25:R24, R17:R16
   \   00000006   01D9               MOVW    R27:R26, R19:R18
   \   00000008   2F08               MOV     R16, R24
   \   0000000A   2B09               OR      R16, R25
   \   0000000C   F059               BREQ    `?~myAdcAdaptor_1`
   \   0000000E   E020               LDI     R18, 0
   \   00000010   E030               LDI     R19, 0
   \   00000012   018C               MOVW    R17:R16, R25:R24
   \   00000014   ........           CALL    `?~AdcEvent`
   \   00000018   2F0A               MOV     R16, R26
   \   0000001A   FF00               SBRS    R16, 0
   \   0000001C   C003               RJMP    `?~myAdcAdaptor_1`
   \   0000001E   018C               MOVW    R17:R16, R25:R24
   \   00000020   ........           CALL    `??operator delete`
   \                     `?~myAdcAdaptor_1`:
   \   00000024   E0E4               LDI     R30, 4
   \   00000026   ........           JMP     ?EPILOGUE_B4_L09
    123          public:

   \                                 In  segment CODE, align 2, keep-with-next
    124            void SetCalClkFuncGen(CalClkFuncGen *_ccf)
   \                     ??SetCalClkFuncGen_3:
    125            {
   \   00000000   ........           CALL    ?PROLOGUE4_L09
   \   00000004   01C8               MOVW    R25:R24, R17:R16
   \   00000006   01D9               MOVW    R27:R26, R19:R18
    126              assert(0 != _ccf);
   \   00000008   2F0A               MOV     R16, R26
   \   0000000A   2B0B               OR      R16, R27
   \   0000000C   F451               BRNE    ??SetCalClkFuncGen_8
   \   0000000E   E74E               LDI     R20, 126
   \   00000010   E050               LDI     R21, 0
   \   00000012   ....               LDI     R18, LOW(`?<Constant "C:\\\\work\\\\APP\\\\Term_Proj...">`)
   \   00000014   ....               LDI     R19, (`?<Constant "C:\\\\work\\\\APP\\\\Term_Proj...">`) >> 8
   \   00000016   ....               LDI     R16, LOW(`?<Constant "0 != _ccf">`)
   \   00000018   ....               LDI     R17, (`?<Constant "0 != _ccf">`) >> 8
   \   0000001A   ........           CALL    __taabi_assert
   \   0000001E   ........           CALL    __iar_EmptyStepPoint
    127              
    128              ccf = _ccf;
   \                     ??SetCalClkFuncGen_8:
   \   00000022   01FC               MOVW    R31:R30, R25:R24
   \   00000024   83A2               STD     Z+2, R26
   \   00000026   83B3               STD     Z+3, R27
    129            }
   \   00000028   E0E4               LDI     R30, 4
   \   0000002A   ........           JMP     ?EPILOGUE_B4_L09
    130          protected:  

   \                                 In  segment CODE, align 2, keep-with-next
    131            void Converted( unsigned short _valueOfAdc)
   \                     ??Converted:
    132            {
   \   00000000   ........           CALL    ?PROLOGUE4_L09
   \   00000004   01D8               MOVW    R27:R26, R17:R16
   \   00000006   01C9               MOVW    R25:R24, R19:R18
    133                if(0 != ccf){
   \   00000008   9612               ADIW    R27:R26, 2
   \   0000000A   910D               LD      R16, X+
   \   0000000C   911C               LD      R17, X
   \   0000000E   9713               SBIW    R27:R26, 3
   \   00000010   2B01               OR      R16, R17
   \   00000012   F039               BREQ    ??Converted_1
    134                  ccf->InputAdc(_valueOfAdc);
   \   00000014   019C               MOVW    R19:R18, R25:R24
   \   00000016   9612               ADIW    R27:R26, 2
   \   00000018   910D               LD      R16, X+
   \   0000001A   911C               LD      R17, X
   \   0000001C   9713               SBIW    R27:R26, 3
   \   0000001E   ........           CALL    ??InputAdc
    135                }
    136              
    137            }
   \                     ??Converted_1:
   \   00000022   E0E4               LDI     R30, 4
   \   00000024   ........           JMP     ?EPILOGUE_B4_L09
    138            
    139          };
    140          

   \                                 In  segment CODE, align 2, keep-with-next
    141          class myPwmAdaptor: public IPwmOut{
   \   __nearfunc __version_3 myPwmAdaptor::myPwmAdaptor()
   \                     ??myPwmAdaptor:
   \   00000000   93BA               ST      -Y, R27
   \   00000002   93AA               ST      -Y, R26
   \   00000004   01D8               MOVW    R27:R26, R17:R16
   \   00000006   018D               MOVW    R17:R16, R27:R26
   \   00000008   ........           CALL    ??IPwmOut
   \   0000000C   ....               LDI     R16, LOW(??__vtbl_4)
   \   0000000E   ....               LDI     R17, (??__vtbl_4) >> 8
   \   00000010   930D               ST      X+, R16
   \   00000012   931C               ST      X, R17
   \   00000014   9711               SBIW    R27:R26, 1
   \   00000016   018D               MOVW    R17:R16, R27:R26
   \   00000018   91A9               LD      R26, Y+
   \   0000001A   91B9               LD      R27, Y+
   \   0000001C   9508               RET

   \                                 In  segment CODE, align 2, keep-with-next
   \   __nearfunc __version_3 myPwmAdaptor::~myPwmAdaptor()
   \                     `?~myPwmAdaptor`:
   \   00000000   ........           CALL    ?PROLOGUE4_L09
   \   00000004   01C8               MOVW    R25:R24, R17:R16
   \   00000006   01D9               MOVW    R27:R26, R19:R18
   \   00000008   2F08               MOV     R16, R24
   \   0000000A   2B09               OR      R16, R25
   \   0000000C   F059               BREQ    `?~myPwmAdaptor_1`
   \   0000000E   E020               LDI     R18, 0
   \   00000010   E030               LDI     R19, 0
   \   00000012   018C               MOVW    R17:R16, R25:R24
   \   00000014   ........           CALL    `?~IPwmOut`
   \   00000018   2F0A               MOV     R16, R26
   \   0000001A   FF00               SBRS    R16, 0
   \   0000001C   C003               RJMP    `?~myPwmAdaptor_1`
   \   0000001E   018C               MOVW    R17:R16, R25:R24
   \   00000020   ........           CALL    `??operator delete`
   \                     `?~myPwmAdaptor_1`:
   \   00000024   E0E4               LDI     R30, 4
   \   00000026   ........           JMP     ?EPILOGUE_B4_L09
    142            Pwm * pwm;
    143          public:

   \                                 In  segment CODE, align 2, keep-with-next
    144           void SetPwm(Pwm * _pwm)
   \                     ??SetPwm:
    145           {
   \   00000000   ........           CALL    ?PROLOGUE4_L09
   \   00000004   01C8               MOVW    R25:R24, R17:R16
   \   00000006   01D9               MOVW    R27:R26, R19:R18
    146             assert( 0 != _pwm);
   \   00000008   2F0A               MOV     R16, R26
   \   0000000A   2B0B               OR      R16, R27
   \   0000000C   F451               BRNE    ??SetPwm_2
   \   0000000E   E942               LDI     R20, 146
   \   00000010   E050               LDI     R21, 0
   \   00000012   ....               LDI     R18, LOW(`?<Constant "C:\\\\work\\\\APP\\\\Term_Proj...">`)
   \   00000014   ....               LDI     R19, (`?<Constant "C:\\\\work\\\\APP\\\\Term_Proj...">`) >> 8
   \   00000016   ....               LDI     R16, LOW(`?<Constant "0 != _pwm">`)
   \   00000018   ....               LDI     R17, (`?<Constant "0 != _pwm">`) >> 8
   \   0000001A   ........           CALL    __taabi_assert
   \   0000001E   ........           CALL    __iar_EmptyStepPoint
    147             pwm = _pwm;
   \                     ??SetPwm_2:
   \   00000022   01FC               MOVW    R31:R30, R25:R24
   \   00000024   83A2               STD     Z+2, R26
   \   00000026   83B3               STD     Z+3, R27
    148           }
   \   00000028   E0E4               LDI     R30, 4
   \   0000002A   ........           JMP     ?EPILOGUE_B4_L09

   \                                 In  segment CODE, align 2, keep-with-next
    149            void SetDuty(unsigned short _du)
   \                     ??SetDuty:
    150            {
   \   00000000   ........           CALL    ?PROLOGUE4_L09
   \   00000004   01D8               MOVW    R27:R26, R17:R16
   \   00000006   01C9               MOVW    R25:R24, R19:R18
    151              if( 0 != pwm)
   \   00000008   9612               ADIW    R27:R26, 2
   \   0000000A   910D               LD      R16, X+
   \   0000000C   911C               LD      R17, X
   \   0000000E   9713               SBIW    R27:R26, 3
   \   00000010   2B01               OR      R16, R17
   \   00000012   F039               BREQ    ??SetDuty_2
    152              {
    153                pwm->SetDuty(_du);
   \   00000014   019C               MOVW    R19:R18, R25:R24
   \   00000016   9612               ADIW    R27:R26, 2
   \   00000018   910D               LD      R16, X+
   \   0000001A   911C               LD      R17, X
   \   0000001C   9713               SBIW    R27:R26, 3
   \   0000001E   ........           CALL    ??SetDuty_1
    154              }
    155            }
   \                     ??SetDuty_2:
   \   00000022   E0E4               LDI     R30, 4
   \   00000024   ........           JMP     ?EPILOGUE_B4_L09
    156          };
    157          

   \                                 In  segment CODE, align 2, keep-with-next
    158          class mySerialEvent : public SerialEvent
   \   __nearfunc __version_3 mySerialEvent::mySerialEvent()
   \                     ??mySerialEvent:
   \   00000000   93BA               ST      -Y, R27
   \   00000002   93AA               ST      -Y, R26
   \   00000004   01D8               MOVW    R27:R26, R17:R16
   \   00000006   018D               MOVW    R17:R16, R27:R26
   \   00000008   ........           CALL    ??SerialEvent
   \   0000000C   ....               LDI     R16, LOW(??__vtbl_5)
   \   0000000E   ....               LDI     R17, (??__vtbl_5) >> 8
   \   00000010   9612               ADIW    R27:R26, 2
   \   00000012   930D               ST      X+, R16
   \   00000014   931C               ST      X, R17
   \   00000016   9713               SBIW    R27:R26, 3
   \   00000018   018D               MOVW    R17:R16, R27:R26
   \   0000001A   91A9               LD      R26, Y+
   \   0000001C   91B9               LD      R27, Y+
   \   0000001E   9508               RET

   \                                 In  segment CODE, align 2, keep-with-next
   \   __nearfunc __version_3 mySerialEvent::~mySerialEvent()
   \                     `?~mySerialEvent`:
   \   00000000   ........           CALL    ?PROLOGUE4_L09
   \   00000004   01C8               MOVW    R25:R24, R17:R16
   \   00000006   01D9               MOVW    R27:R26, R19:R18
   \   00000008   2F08               MOV     R16, R24
   \   0000000A   2B09               OR      R16, R25
   \   0000000C   F059               BREQ    `?~mySerialEvent_1`
   \   0000000E   E020               LDI     R18, 0
   \   00000010   E030               LDI     R19, 0
   \   00000012   018C               MOVW    R17:R16, R25:R24
   \   00000014   ........           CALL    `?~SerialEvent`
   \   00000018   2F0A               MOV     R16, R26
   \   0000001A   FF00               SBRS    R16, 0
   \   0000001C   C003               RJMP    `?~mySerialEvent_1`
   \   0000001E   018C               MOVW    R17:R16, R25:R24
   \   00000020   ........           CALL    `??operator delete`
   \                     `?~mySerialEvent_1`:
   \   00000024   E0E4               LDI     R30, 4
   \   00000026   ........           JMP     ?EPILOGUE_B4_L09
    159          {
    160            CalClkFuncGen *ccf;
    161            

   \                                 In  segment CODE, align 2, keep-with-next
    162            void Receive( unsigned char _data ){
   \                     ??Receive:
   \   00000000   ........           CALL    ?PROLOGUE4_L09
   \   00000004   01D8               MOVW    R27:R26, R17:R16
   \   00000006   2F82               MOV     R24, R18
    163          
    164              sio->Write(_data);
   \   00000008   2F28               MOV     R18, R24
   \   0000000A   910D               LD      R16, X+
   \   0000000C   911C               LD      R17, X
   \   0000000E   9711               SBIW    R27:R26, 1
   \   00000010   ........           CALL    ??Write_3
    165              if( '\r' == _data)// '\r' is 0x0d; 
   \   00000014   308D               CPI     R24, 13
   \   00000016   F439               BRNE    ??Receive_1
    166              {
    167                sio->Write("\n");
   \   00000018   ....               LDI     R18, LOW(`?<Constant "\\n">`)
   \   0000001A   ....               LDI     R19, (`?<Constant "\\n">`) >> 8
   \   0000001C   910D               LD      R16, X+
   \   0000001E   911C               LD      R17, X
   \   00000020   9711               SBIW    R27:R26, 1
   \   00000022   ........           CALL    ??Write_4
    168              }
    169              
    170                if(0 != ccf){
   \                     ??Receive_1:
   \   00000026   01FD               MOVW    R31:R30, R27:R26
   \   00000028   8104               LDD     R16, Z+4
   \   0000002A   8115               LDD     R17, Z+5
   \   0000002C   2B01               OR      R16, R17
   \   0000002E   F031               BREQ    ??Receive_2
    171                  ccf->InputCh(_data); //echo back
   \   00000030   2F28               MOV     R18, R24
   \   00000032   01FD               MOVW    R31:R30, R27:R26
   \   00000034   8104               LDD     R16, Z+4
   \   00000036   8115               LDD     R17, Z+5
   \   00000038   ........           CALL    ??InputCh
    172                }
    173              
    174            }
   \                     ??Receive_2:
   \   0000003C   E0E4               LDI     R30, 4
   \   0000003E   ........           JMP     ?EPILOGUE_B4_L09
    175          
    176          public:
    177          

   \                                 In  segment CODE, align 2, keep-with-next
    178            void SetCalClkFuncGen(CalClkFuncGen *_ccf)
   \                     ??SetCalClkFuncGen_4:
    179            {
   \   00000000   ........           CALL    ?PROLOGUE4_L09
   \   00000004   01C8               MOVW    R25:R24, R17:R16
   \   00000006   01D9               MOVW    R27:R26, R19:R18
    180              assert(0 != _ccf);
   \   00000008   2F0A               MOV     R16, R26
   \   0000000A   2B0B               OR      R16, R27
   \   0000000C   F451               BRNE    ??SetCalClkFuncGen_9
   \   0000000E   EB44               LDI     R20, 180
   \   00000010   E050               LDI     R21, 0
   \   00000012   ....               LDI     R18, LOW(`?<Constant "C:\\\\work\\\\APP\\\\Term_Proj...">`)
   \   00000014   ....               LDI     R19, (`?<Constant "C:\\\\work\\\\APP\\\\Term_Proj...">`) >> 8
   \   00000016   ....               LDI     R16, LOW(`?<Constant "0 != _ccf">`)
   \   00000018   ....               LDI     R17, (`?<Constant "0 != _ccf">`) >> 8
   \   0000001A   ........           CALL    __taabi_assert
   \   0000001E   ........           CALL    __iar_EmptyStepPoint
    181              
    182              ccf = _ccf;
   \                     ??SetCalClkFuncGen_9:
   \   00000022   01FC               MOVW    R31:R30, R25:R24
   \   00000024   83A4               STD     Z+4, R26
   \   00000026   83B5               STD     Z+5, R27
    183            }  
   \   00000028   E0E4               LDI     R30, 4
   \   0000002A   ........           JMP     ?EPILOGUE_B4_L09
    184          
    185            
    186          };

   \                                 In  segment CODE, align 2, keep-with-next
    187          class mySerialOutAdaptor: public IStringOut
   \   __nearfunc __version_3 mySerialOutAdaptor::mySerialOutAdaptor()
   \                     ??mySerialOutAdaptor:
   \   00000000   93BA               ST      -Y, R27
   \   00000002   93AA               ST      -Y, R26
   \   00000004   01D8               MOVW    R27:R26, R17:R16
   \   00000006   018D               MOVW    R17:R16, R27:R26
   \   00000008   ........           CALL    ??IStringOut
   \   0000000C   ....               LDI     R16, LOW(??__vtbl_6)
   \   0000000E   ....               LDI     R17, (??__vtbl_6) >> 8
   \   00000010   930D               ST      X+, R16
   \   00000012   931C               ST      X, R17
   \   00000014   9711               SBIW    R27:R26, 1
   \   00000016   018D               MOVW    R17:R16, R27:R26
   \   00000018   91A9               LD      R26, Y+
   \   0000001A   91B9               LD      R27, Y+
   \   0000001C   9508               RET

   \                                 In  segment CODE, align 2, keep-with-next
   \   __nearfunc __version_3 mySerialOutAdaptor::~mySerialOutAdaptor()
   \                     `?~mySerialOutAdaptor`:
   \   00000000   ........           CALL    ?PROLOGUE4_L09
   \   00000004   01C8               MOVW    R25:R24, R17:R16
   \   00000006   01D9               MOVW    R27:R26, R19:R18
   \   00000008   2F08               MOV     R16, R24
   \   0000000A   2B09               OR      R16, R25
   \   0000000C   F059               BREQ    `?~mySerialOutAdaptor_1`
   \   0000000E   E020               LDI     R18, 0
   \   00000010   E030               LDI     R19, 0
   \   00000012   018C               MOVW    R17:R16, R25:R24
   \   00000014   ........           CALL    `?~IStringOut`
   \   00000018   2F0A               MOV     R16, R26
   \   0000001A   FF00               SBRS    R16, 0
   \   0000001C   C003               RJMP    `?~mySerialOutAdaptor_1`
   \   0000001E   018C               MOVW    R17:R16, R25:R24
   \   00000020   ........           CALL    `??operator delete`
   \                     `?~mySerialOutAdaptor_1`:
   \   00000024   E0E4               LDI     R30, 4
   \   00000026   ........           JMP     ?EPILOGUE_B4_L09
    188          {
    189            SerialIO      * serial;
    190          public:
    191            

   \                                 In  segment CODE, align 2, keep-with-next
    192            void SetSerial(SerialIO * _serial)
   \                     ??SetSerial:
    193            {
   \   00000000   ........           CALL    ?PROLOGUE4_L09
   \   00000004   01C8               MOVW    R25:R24, R17:R16
   \   00000006   01D9               MOVW    R27:R26, R19:R18
    194              assert( 0 != _serial);
   \   00000008   2F0A               MOV     R16, R26
   \   0000000A   2B0B               OR      R16, R27
   \   0000000C   F451               BRNE    ??SetSerial_1
   \   0000000E   EC42               LDI     R20, 194
   \   00000010   E050               LDI     R21, 0
   \   00000012   ....               LDI     R18, LOW(`?<Constant "C:\\\\work\\\\APP\\\\Term_Proj...">`)
   \   00000014   ....               LDI     R19, (`?<Constant "C:\\\\work\\\\APP\\\\Term_Proj...">`) >> 8
   \   00000016   ....               LDI     R16, LOW(`?<Constant "0 != _serial">`)
   \   00000018   ....               LDI     R17, (`?<Constant "0 != _serial">`) >> 8
   \   0000001A   ........           CALL    __taabi_assert
   \   0000001E   ........           CALL    __iar_EmptyStepPoint
    195              serial = _serial;
   \                     ??SetSerial_1:
   \   00000022   01FC               MOVW    R31:R30, R25:R24
   \   00000024   83A2               STD     Z+2, R26
   \   00000026   83B3               STD     Z+3, R27
    196            }
   \   00000028   E0E4               LDI     R30, 4
   \   0000002A   ........           JMP     ?EPILOGUE_B4_L09
    197            

   \                                 In  segment CODE, align 2, keep-with-next
    198            void Write(char * _str)
   \                     ??Write:
    199            {
   \   00000000   ........           CALL    ?PROLOGUE4_L09
   \   00000004   01C8               MOVW    R25:R24, R17:R16
   \   00000006   01D9               MOVW    R27:R26, R19:R18
    200              assert(0 != _str);
   \   00000008   2F0A               MOV     R16, R26
   \   0000000A   2B0B               OR      R16, R27
   \   0000000C   F451               BRNE    ??Write_5
   \   0000000E   EC48               LDI     R20, 200
   \   00000010   E050               LDI     R21, 0
   \   00000012   ....               LDI     R18, LOW(`?<Constant "C:\\\\work\\\\APP\\\\Term_Proj...">`)
   \   00000014   ....               LDI     R19, (`?<Constant "C:\\\\work\\\\APP\\\\Term_Proj...">`) >> 8
   \   00000016   ....               LDI     R16, LOW(`?<Constant "0 != _str">`)
   \   00000018   ....               LDI     R17, (`?<Constant "0 != _str">`) >> 8
   \   0000001A   ........           CALL    __taabi_assert
   \   0000001E   ........           CALL    __iar_EmptyStepPoint
    201              
    202              if( 0 != serial)
   \                     ??Write_5:
   \   00000022   01FC               MOVW    R31:R30, R25:R24
   \   00000024   8102               LDD     R16, Z+2
   \   00000026   8113               LDD     R17, Z+3
   \   00000028   2B01               OR      R16, R17
   \   0000002A   F031               BREQ    ??Write_6
    203              {
    204                serial->Write(_str);
   \   0000002C   019D               MOVW    R19:R18, R27:R26
   \   0000002E   01FC               MOVW    R31:R30, R25:R24
   \   00000030   8102               LDD     R16, Z+2
   \   00000032   8113               LDD     R17, Z+3
   \   00000034   ........           CALL    ??Write_4
    205              }
    206              
    207            }
   \                     ??Write_6:
   \   00000038   E0E4               LDI     R30, 4
   \   0000003A   ........           JMP     ?EPILOGUE_B4_L09
    208            
    209          };
    210          
    211          class mylcdAdaptor:public IStringOut
    212          {
    213            Clcd        *lcd;
    214            unsigned char line;
    215          public:

   \                                 In  segment CODE, align 2, keep-with-next
    216            mylcdAdaptor(){}
   \                     ??mylcdAdaptor:
   \   00000000   93BA               ST      -Y, R27
   \   00000002   93AA               ST      -Y, R26
   \   00000004   01D8               MOVW    R27:R26, R17:R16
   \   00000006   018D               MOVW    R17:R16, R27:R26
   \   00000008   ........           CALL    ??IStringOut
   \   0000000C   ....               LDI     R16, LOW(??__vtbl_7)
   \   0000000E   ....               LDI     R17, (??__vtbl_7) >> 8
   \   00000010   930D               ST      X+, R16
   \   00000012   931C               ST      X, R17
   \   00000014   9711               SBIW    R27:R26, 1
   \   00000016   018D               MOVW    R17:R16, R27:R26
   \   00000018   91A9               LD      R26, Y+
   \   0000001A   91B9               LD      R27, Y+
   \   0000001C   9508               RET

   \                                 In  segment CODE, align 2, keep-with-next
    217            virtual ~mylcdAdaptor(){}
   \                     `?~mylcdAdaptor`:
   \   00000000   ........           CALL    ?PROLOGUE4_L09
   \   00000004   01C8               MOVW    R25:R24, R17:R16
   \   00000006   01D9               MOVW    R27:R26, R19:R18
   \   00000008   2F08               MOV     R16, R24
   \   0000000A   2B09               OR      R16, R25
   \   0000000C   F059               BREQ    `?~mylcdAdaptor_1`
   \   0000000E   E020               LDI     R18, 0
   \   00000010   E030               LDI     R19, 0
   \   00000012   018C               MOVW    R17:R16, R25:R24
   \   00000014   ........           CALL    `?~IStringOut`
   \   00000018   2F0A               MOV     R16, R26
   \   0000001A   FF00               SBRS    R16, 0
   \   0000001C   C003               RJMP    `?~mylcdAdaptor_1`
   \   0000001E   018C               MOVW    R17:R16, R25:R24
   \   00000020   ........           CALL    `??operator delete`
   \                     `?~mylcdAdaptor_1`:
   \   00000024   E0E4               LDI     R30, 4
   \   00000026   ........           JMP     ?EPILOGUE_B4_L09
    218            
    219            

   \                                 In  segment CODE, align 2, keep-with-next
    220            void SetClcd(Clcd  *_lcd,unsigned char _line)
   \                     ??SetClcd:
    221            {
   \   00000000   ........           CALL    ?PROLOGUE5_L09
   \   00000004                      REQUIRE ?Register_R4_is_cg_reg
   \   00000004   01D8               MOVW    R27:R26, R17:R16
   \   00000006   01C9               MOVW    R25:R24, R19:R18
   \   00000008   2E44               MOV     R4, R20
    222              assert(0 != _lcd);
   \   0000000A   2F08               MOV     R16, R24
   \   0000000C   2B09               OR      R16, R25
   \   0000000E   F451               BRNE    ??SetClcd_1
   \   00000010   ED4E               LDI     R20, 222
   \   00000012   E050               LDI     R21, 0
   \   00000014   ....               LDI     R18, LOW(`?<Constant "C:\\\\work\\\\APP\\\\Term_Proj...">`)
   \   00000016   ....               LDI     R19, (`?<Constant "C:\\\\work\\\\APP\\\\Term_Proj...">`) >> 8
   \   00000018   ....               LDI     R16, LOW(`?<Constant "0 != _lcd">`)
   \   0000001A   ....               LDI     R17, (`?<Constant "0 != _lcd">`) >> 8
   \   0000001C   ........           CALL    __taabi_assert
   \   00000020   ........           CALL    __iar_EmptyStepPoint
    223              lcd = _lcd;
   \                     ??SetClcd_1:
   \   00000024   01FD               MOVW    R31:R30, R27:R26
   \   00000026   8382               STD     Z+2, R24
   \   00000028   8393               STD     Z+3, R25
    224              line = _line;
   \   0000002A   01FD               MOVW    R31:R30, R27:R26
   \   0000002C   8244               STD     Z+4, R4
    225            } 
   \   0000002E   E0E5               LDI     R30, 5
   \   00000030   ........           JMP     ?EPILOGUE_B5_L09
    226            

   \                                 In  segment CODE, align 2, keep-with-next
    227            void Write(char * _str)
   \                     ??Write_1:
    228            {
   \   00000000   ........           CALL    ?PROLOGUE4_L09
   \   00000004   01D8               MOVW    R27:R26, R17:R16
   \   00000006   01C9               MOVW    R25:R24, R19:R18
    229              if(0 != lcd)
   \   00000008   01FD               MOVW    R31:R30, R27:R26
   \   0000000A   8102               LDD     R16, Z+2
   \   0000000C   8113               LDD     R17, Z+3
   \   0000000E   2B01               OR      R16, R17
   \   00000010   F041               BREQ    ??Write_8
    230              {
    231                lcd->Write(line,_str);
   \   00000012   01AC               MOVW    R21:R20, R25:R24
   \   00000014   01FD               MOVW    R31:R30, R27:R26
   \   00000016   8124               LDD     R18, Z+4
   \   00000018   01FD               MOVW    R31:R30, R27:R26
   \   0000001A   8102               LDD     R16, Z+2
   \   0000001C   8113               LDD     R17, Z+3
   \   0000001E   ........           CALL    ??Write_7
    232              }
    233            }
   \                     ??Write_8:
   \   00000022   E0E4               LDI     R30, 4
   \   00000024   ........           JMP     ?EPILOGUE_B4_L09
    234          };
    235          
    236          /////////////////////////////

   \                                 In  segment CODE, align 2, keep-with-next
   \   static __intrinsic __nearfunc __version_3 void __sti__routine()
   \                     ??__sti__routine:
    237          Term_Project_s myApp;
   \   00000000   ....               LDI     R16, LOW(myApp)
   \   00000002   ....               LDI     R17, (myApp) >> 8
   \   00000004   ....               RCALL   ??Term_Project_s
   \   00000006   ....               LDI     R16, LOW(?_0)
   \   00000008   ....               LDI     R17, (?_0) >> 8
   \   0000000A   ........           CALL    __record_needed_destruction
    238          ////////////////////////////
    239          
    240          CalClkFuncGen    ccf;
   \   0000000E   ....               LDI     R16, LOW(ccf)
   \   00000010   ....               LDI     R17, (ccf) >> 8
   \   00000012   ........           CALL    ??CalClkFuncGen
   \   00000016   ....               LDI     R16, LOW(?_2)
   \   00000018   ....               LDI     R17, (?_2) >> 8
   \   0000001A   ........           CALL    __record_needed_destruction
    241          myAdcAdaptor  myadcEvent;
   \   0000001E   ....               LDI     R16, LOW(myadcEvent)
   \   00000020   ....               LDI     R17, (myadcEvent) >> 8
   \   00000022   ........           CALL    ??myAdcAdaptor
   \   00000026   ....               LDI     R16, LOW(?_4)
   \   00000028   ....               LDI     R17, (?_4) >> 8
   \   0000002A   ........           CALL    __record_needed_destruction
    242          myPwmAdaptor  myPwmadp;
   \   0000002E   ....               LDI     R16, LOW(myPwmadp)
   \   00000030   ....               LDI     R17, (myPwmadp) >> 8
   \   00000032   ........           CALL    ??myPwmAdaptor
   \   00000036   ....               LDI     R16, LOW(?_6)
   \   00000038   ....               LDI     R17, (?_6) >> 8
   \   0000003A   ........           CALL    __record_needed_destruction
    243          mylcdAdaptor   mylcdline1,mylcdline2;
   \   0000003E   ....               LDI     R16, LOW(mylcdline1)
   \   00000040   ....               LDI     R17, (mylcdline1) >> 8
   \   00000042   ........           CALL    ??mylcdAdaptor
   \   00000046   ....               LDI     R16, LOW(?_8)
   \   00000048   ....               LDI     R17, (?_8) >> 8
   \   0000004A   ........           CALL    __record_needed_destruction
   \   0000004E   ....               LDI     R16, LOW(mylcdline2)
   \   00000050   ....               LDI     R17, (mylcdline2) >> 8
   \   00000052   ........           CALL    ??mylcdAdaptor
   \   00000056   ....               LDI     R16, LOW(?_10)
   \   00000058   ....               LDI     R17, (?_10) >> 8
   \   0000005A   ........           CALL    __record_needed_destruction
    244          mySerialOutAdaptor myserialadp;
   \   0000005E   ....               LDI     R16, LOW(myserialadp)
   \   00000060   ....               LDI     R17, (myserialadp) >> 8
   \   00000062   ........           CALL    ??mySerialOutAdaptor
   \   00000066   ....               LDI     R16, LOW(?_12)
   \   00000068   ....               LDI     R17, (?_12) >> 8
   \   0000006A   ........           CALL    __record_needed_destruction
    245          mySerialEvent       myserialEvent;
   \   0000006E   ....               LDI     R16, LOW(myserialEvent)
   \   00000070   ....               LDI     R17, (myserialEvent) >> 8
   \   00000072   ........           CALL    ??mySerialEvent
   \   00000076   ....               LDI     R16, LOW(?_14)
   \   00000078   ....               LDI     R17, (?_14) >> 8
   \   0000007A   ........           CALL    __record_needed_destruction
    246          myTimer1s     mytimer_1sec;
   \   0000007E   ....               LDI     R16, LOW(mytimer_1sec)
   \   00000080   ....               LDI     R17, (mytimer_1sec) >> 8
   \   00000082   ........           CALL    ??myTimer1s
   \   00000086   ....               LDI     R16, LOW(?_16)
   \   00000088   ....               LDI     R17, (?_16) >> 8
   \   0000008A   ........           CALL    __record_needed_destruction
    247          myTimer500ms  mytimer_500ms;
   \   0000008E   ....               LDI     R16, LOW(mytimer_500ms)
   \   00000090   ....               LDI     R17, (mytimer_500ms) >> 8
   \   00000092   ........           CALL    ??myTimer500ms
   \   00000096   ....               LDI     R16, LOW(?_18)
   \   00000098   ....               LDI     R17, (?_18) >> 8
   \   0000009A   ........           CALL    __record_needed_destruction
    248          
    249          mySWEvent   mySW;
   \   0000009E   ....               LDI     R16, LOW(mySW)
   \   000000A0   ....               LDI     R17, (mySW) >> 8
   \   000000A2   ........           CALL    ??mySWEvent
   \   000000A6   ....               LDI     R16, LOW(?_20)
   \   000000A8   ....               LDI     R17, (?_20) >> 8
   \   000000AA   ........           CALL    __record_needed_destruction
   \   000000AE   9508               RET

   \                                 In  segment CODE, align 2, keep-with-next
   \                     `?<Unnamed 0>`:
   \   00000000   939A               ST      -Y, R25
   \   00000002   938A               ST      -Y, R24
   \   00000004   01C8               MOVW    R25:R24, R17:R16
   \   00000006   E022               LDI     R18, 2
   \   00000008   E030               LDI     R19, 0
   \   0000000A   018C               MOVW    R17:R16, R25:R24
   \   0000000C   ........           CALL    `?~Term_Project_s`
   \   00000010   9189               LD      R24, Y+
   \   00000012   9199               LD      R25, Y+
   \   00000014   9508               RET

   \                                 In  segment NEAR_Z, align 1, keep-with-next
   \   00000000                      REQUIRE `?<Segment init: NEAR_Z>`
   \                     myApp:
   \   00000000                      DS8 20

   \                                 In  segment CODE, align 2, keep-with-next
   \                     `?<Unnamed 1>`:
   \   00000000   939A               ST      -Y, R25
   \   00000002   938A               ST      -Y, R24
   \   00000004   01C8               MOVW    R25:R24, R17:R16
   \   00000006   E022               LDI     R18, 2
   \   00000008   E030               LDI     R19, 0
   \   0000000A   018C               MOVW    R17:R16, R25:R24
   \   0000000C   ........           CALL    `?~CalClkFuncGen`
   \   00000010   9189               LD      R24, Y+
   \   00000012   9199               LD      R25, Y+
   \   00000014   9508               RET

   \                                 In  segment NEAR_Z, align 1, keep-with-next
   \   00000000                      REQUIRE `?<Segment init: NEAR_Z>`
   \                     ccf:
   \   00000000                      DS8 30

   \                                 In  segment CODE, align 2, keep-with-next
   \                     `?<Unnamed 2>`:
   \   00000000   939A               ST      -Y, R25
   \   00000002   938A               ST      -Y, R24
   \   00000004   01C8               MOVW    R25:R24, R17:R16
   \   00000006   E022               LDI     R18, 2
   \   00000008   E030               LDI     R19, 0
   \   0000000A   018C               MOVW    R17:R16, R25:R24
   \   0000000C   ........           CALL    `?~myAdcAdaptor`
   \   00000010   9189               LD      R24, Y+
   \   00000012   9199               LD      R25, Y+
   \   00000014   9508               RET

   \                                 In  segment NEAR_Z, align 1, keep-with-next
   \   00000000                      REQUIRE `?<Segment init: NEAR_Z>`
   \                     myadcEvent:
   \   00000000                      DS8 4

   \                                 In  segment CODE, align 2, keep-with-next
   \                     `?<Unnamed 3>`:
   \   00000000   939A               ST      -Y, R25
   \   00000002   938A               ST      -Y, R24
   \   00000004   01C8               MOVW    R25:R24, R17:R16
   \   00000006   E022               LDI     R18, 2
   \   00000008   E030               LDI     R19, 0
   \   0000000A   018C               MOVW    R17:R16, R25:R24
   \   0000000C   ........           CALL    `?~myPwmAdaptor`
   \   00000010   9189               LD      R24, Y+
   \   00000012   9199               LD      R25, Y+
   \   00000014   9508               RET

   \                                 In  segment NEAR_Z, align 1, keep-with-next
   \   00000000                      REQUIRE `?<Segment init: NEAR_Z>`
   \                     myPwmadp:
   \   00000000                      DS8 4

   \                                 In  segment CODE, align 2, keep-with-next
   \                     `?<Unnamed 4>`:
   \   00000000   939A               ST      -Y, R25
   \   00000002   938A               ST      -Y, R24
   \   00000004   01C8               MOVW    R25:R24, R17:R16
   \   00000006   E022               LDI     R18, 2
   \   00000008   E030               LDI     R19, 0
   \   0000000A   018C               MOVW    R17:R16, R25:R24
   \   0000000C   ........           CALL    `?~mylcdAdaptor`
   \   00000010   9189               LD      R24, Y+
   \   00000012   9199               LD      R25, Y+
   \   00000014   9508               RET

   \                                 In  segment NEAR_Z, align 1, keep-with-next
   \   00000000                      REQUIRE `?<Segment init: NEAR_Z>`
   \                     mylcdline1:
   \   00000000                      DS8 5

   \                                 In  segment NEAR_Z, align 1, keep-with-next
   \   00000000                      REQUIRE `?<Segment init: NEAR_Z>`
   \                     mylcdline2:
   \   00000000                      DS8 5

   \                                 In  segment CODE, align 2, keep-with-next
   \                     `?<Unnamed 5>`:
   \   00000000   939A               ST      -Y, R25
   \   00000002   938A               ST      -Y, R24
   \   00000004   01C8               MOVW    R25:R24, R17:R16
   \   00000006   E022               LDI     R18, 2
   \   00000008   E030               LDI     R19, 0
   \   0000000A   018C               MOVW    R17:R16, R25:R24
   \   0000000C   ........           CALL    `?~mySerialOutAdaptor`
   \   00000010   9189               LD      R24, Y+
   \   00000012   9199               LD      R25, Y+
   \   00000014   9508               RET

   \                                 In  segment NEAR_Z, align 1, keep-with-next
   \   00000000                      REQUIRE `?<Segment init: NEAR_Z>`
   \                     myserialadp:
   \   00000000                      DS8 4

   \                                 In  segment CODE, align 2, keep-with-next
   \                     `?<Unnamed 6>`:
   \   00000000   939A               ST      -Y, R25
   \   00000002   938A               ST      -Y, R24
   \   00000004   01C8               MOVW    R25:R24, R17:R16
   \   00000006   E022               LDI     R18, 2
   \   00000008   E030               LDI     R19, 0
   \   0000000A   018C               MOVW    R17:R16, R25:R24
   \   0000000C   ........           CALL    `?~mySerialEvent`
   \   00000010   9189               LD      R24, Y+
   \   00000012   9199               LD      R25, Y+
   \   00000014   9508               RET

   \                                 In  segment NEAR_Z, align 1, keep-with-next
   \   00000000                      REQUIRE `?<Segment init: NEAR_Z>`
   \                     myserialEvent:
   \   00000000                      DS8 6

   \                                 In  segment CODE, align 2, keep-with-next
   \                     `?<Unnamed 7>`:
   \   00000000   939A               ST      -Y, R25
   \   00000002   938A               ST      -Y, R24
   \   00000004   01C8               MOVW    R25:R24, R17:R16
   \   00000006   E022               LDI     R18, 2
   \   00000008   E030               LDI     R19, 0
   \   0000000A   018C               MOVW    R17:R16, R25:R24
   \   0000000C   ........           CALL    `?~myTimer1s`
   \   00000010   9189               LD      R24, Y+
   \   00000012   9199               LD      R25, Y+
   \   00000014   9508               RET

   \                                 In  segment NEAR_Z, align 1, keep-with-next
   \   00000000                      REQUIRE `?<Segment init: NEAR_Z>`
   \                     mytimer_1sec:
   \   00000000                      DS8 12

   \                                 In  segment CODE, align 2, keep-with-next
   \                     `?<Unnamed 8>`:
   \   00000000   939A               ST      -Y, R25
   \   00000002   938A               ST      -Y, R24
   \   00000004   01C8               MOVW    R25:R24, R17:R16
   \   00000006   E022               LDI     R18, 2
   \   00000008   E030               LDI     R19, 0
   \   0000000A   018C               MOVW    R17:R16, R25:R24
   \   0000000C   ........           CALL    `?~myTimer500ms`
   \   00000010   9189               LD      R24, Y+
   \   00000012   9199               LD      R25, Y+
   \   00000014   9508               RET

   \                                 In  segment NEAR_Z, align 1, keep-with-next
   \   00000000                      REQUIRE `?<Segment init: NEAR_Z>`
   \                     mytimer_500ms:
   \   00000000                      DS8 12

   \                                 In  segment CODE, align 2, keep-with-next
   \                     `?<Unnamed 9>`:
   \   00000000   939A               ST      -Y, R25
   \   00000002   938A               ST      -Y, R24
   \   00000004   01C8               MOVW    R25:R24, R17:R16
   \   00000006   E022               LDI     R18, 2
   \   00000008   E030               LDI     R19, 0
   \   0000000A   018C               MOVW    R17:R16, R25:R24
   \   0000000C   ........           CALL    `?~mySWEvent`
   \   00000010   9189               LD      R24, Y+
   \   00000012   9199               LD      R25, Y+
   \   00000014   9508               RET

   \                                 In  segment NEAR_Z, align 1, keep-with-next
   \   00000000                      REQUIRE `?<Segment init: NEAR_Z>`
   \                     mySW:
   \   00000000                      DS8 6
    250          
    251          

   \                                 In  segment CODE, align 2, keep-with-next
    252          Term_Project_s::Term_Project_s()
   \                     ??Term_Project_s:
   \   00000000   93BA               ST      -Y, R27
   \   00000002   93AA               ST      -Y, R26
   \   00000004   01D8               MOVW    R27:R26, R17:R16
    253          {
   \   00000006   018D               MOVW    R17:R16, R27:R26
   \   00000008   ........           CALL    ??SystemManager
   \   0000000C   ....               LDI     R16, LOW(??__vtbl_8)
   \   0000000E   ....               LDI     R17, (??__vtbl_8) >> 8
   \   00000010   9612               ADIW    R27:R26, 2
   \   00000012   930D               ST      X+, R16
   \   00000014   931C               ST      X, R17
   \   00000016   9713               SBIW    R27:R26, 3
    254            
    255          }
   \   00000018   018D               MOVW    R17:R16, R27:R26
   \   0000001A   91A9               LD      R26, Y+
   \   0000001C   91B9               LD      R27, Y+
   \   0000001E   9508               RET
    256             
    257          #define LED_GREEN8B BCComponentManager::LED0
    258          
    259          //Init()      

   \                                 In  segment CODE, align 2, keep-with-next
    260          void Term_Project_s::Init(void)
   \                     ??Init:
    261          {
   \   00000000   93BA               ST      -Y, R27
   \   00000002   93AA               ST      -Y, R26
   \   00000004   01D8               MOVW    R27:R26, R17:R16
    262            driver = GetDriverFactory();
   \   00000006   ........           CALL    ??GetDriverFactory
   \   0000000A   01FD               MOVW    R31:R30, R27:R26
   \   0000000C   8306               STD     Z+6, R16
   \   0000000E   8317               STD     Z+7, R17
    263            tm = GetBCComponentManager()->CreateTimer();
   \   00000010   ........           CALL    ??GetBCComponentManager
   \   00000014   ........           CALL    ??CreateTimer
   \   00000018   01FD               MOVW    R31:R30, R27:R26
   \   0000001A   8304               STD     Z+4, R16
   \   0000001C   8315               STD     Z+5, R17
    264            greenLed  = GetBCComponentManager()->CreateLed(LED_GREEN8B);
   \   0000001E   ........           CALL    ??GetBCComponentManager
   \   00000022   E020               LDI     R18, 0
   \   00000024   ........           CALL    ??CreateLed
   \   00000028   01FD               MOVW    R31:R30, R27:R26
   \   0000002A   8704               STD     Z+12, R16
   \   0000002C   8715               STD     Z+13, R17
    265            swDin   =  GetBCComponentManager()->CreateDIn();
   \   0000002E   ........           CALL    ??GetBCComponentManager
   \   00000032   ........           CALL    ??CreateDIn
   \   00000036   01FD               MOVW    R31:R30, R27:R26
   \   00000038   8B02               STD     Z+18, R16
   \   0000003A   8B13               STD     Z+19, R17
    266            serial = GetBCComponentManager()->CreateSerialIO();
   \   0000003C   ........           CALL    ??GetBCComponentManager
   \   00000040   E020               LDI     R18, 0
   \   00000042   ........           CALL    ??CreateSerialIO
   \   00000046   01FD               MOVW    R31:R30, R27:R26
   \   00000048   8700               STD     Z+8, R16
   \   0000004A   8711               STD     Z+9, R17
    267            adc = GetBCComponentManager()->CreateAdc();
   \   0000004C   ........           CALL    ??GetBCComponentManager
   \   00000050   ........           CALL    ??CreateAdc
   \   00000054   01FD               MOVW    R31:R30, R27:R26
   \   00000056   8706               STD     Z+14, R16
   \   00000058   8717               STD     Z+15, R17
    268            pwm = GetBCComponentManager()->CreatePwm();
   \   0000005A   ........           CALL    ??GetBCComponentManager
   \   0000005E   ........           CALL    ??CreatePwm
   \   00000062   01FD               MOVW    R31:R30, R27:R26
   \   00000064   8B00               STD     Z+16, R16
   \   00000066   8B11               STD     Z+17, R17
    269            lcd = driver->CreateClcd();
   \   00000068   9616               ADIW    R27:R26, 6
   \   0000006A   91ED               LD      R30, X+
   \   0000006C   91FC               LD      R31, X
   \   0000006E   9717               SBIW    R27:R26, 7
   \   00000070   8120               LD      R18, Z
   \   00000072   8131               LDD     R19, Z+1
   \   00000074   5F24               SUBI    R18, 244
   \   00000076   4F3F               SBCI    R19, 255
   \   00000078   01FD               MOVW    R31:R30, R27:R26
   \   0000007A   8106               LDD     R16, Z+6
   \   0000007C   8117               LDD     R17, Z+7
   \   0000007E   01F9               MOVW    R31:R30, R19:R18
   \   00000080   9125               LPM     R18, Z+
   \   00000082   9134               LPM     R19, Z
   \   00000084   9731               SBIW    R31:R30, 1
   \   00000086   01F9               MOVW    R31:R30, R19:R18
   \   00000088   9509               ICALL
   \   0000008A   01FD               MOVW    R31:R30, R27:R26
   \   0000008C   8702               STD     Z+10, R16
   \   0000008E   8713               STD     Z+11, R17
    270            
    271          ///////////////////////////////////////////////////////////////////////////////   
    272          
    273            mytimer_1sec.SetLed(greenLed);
   \   00000090   01FD               MOVW    R31:R30, R27:R26
   \   00000092   8524               LDD     R18, Z+12
   \   00000094   8535               LDD     R19, Z+13
   \   00000096   ....               LDI     R16, LOW(mytimer_1sec)
   \   00000098   ....               LDI     R17, (mytimer_1sec) >> 8
   \   0000009A   ........           CALL    ??SetLed
    274            mytimer_1sec.SetCalClkFuncGen(&ccf);
   \   0000009E   ....               LDI     R18, LOW(ccf)
   \   000000A0   ....               LDI     R19, (ccf) >> 8
   \   000000A2   ....               LDI     R16, LOW(mytimer_1sec)
   \   000000A4   ....               LDI     R17, (mytimer_1sec) >> 8
   \   000000A6   ........           CALL    ??SetCalClkFuncGen
    275            tm->AddEvent(&mytimer_1sec);
   \   000000AA   ....               LDI     R18, LOW(mytimer_1sec)
   \   000000AC   ....               LDI     R19, (mytimer_1sec) >> 8
   \   000000AE   01FD               MOVW    R31:R30, R27:R26
   \   000000B0   8104               LDD     R16, Z+4
   \   000000B2   8115               LDD     R17, Z+5
   \   000000B4   ........           CALL    ??AddEvent
    276            mytimer_1sec.Resume();
   \   000000B8   ....               LDI     R16, LOW(mytimer_1sec)
   \   000000BA   ....               LDI     R17, (mytimer_1sec) >> 8
   \   000000BC   ........           CALL    ??Resume
    277            
    278            
    279            mytimer_500ms.SetLed(greenLed);
   \   000000C0   01FD               MOVW    R31:R30, R27:R26
   \   000000C2   8524               LDD     R18, Z+12
   \   000000C4   8535               LDD     R19, Z+13
   \   000000C6   ....               LDI     R16, LOW(mytimer_500ms)
   \   000000C8   ....               LDI     R17, (mytimer_500ms) >> 8
   \   000000CA   ........           CALL    ??SetLed_1
    280            mytimer_500ms.SetCalClkFuncGen(&ccf);
   \   000000CE   ....               LDI     R18, LOW(ccf)
   \   000000D0   ....               LDI     R19, (ccf) >> 8
   \   000000D2   ....               LDI     R16, LOW(mytimer_500ms)
   \   000000D4   ....               LDI     R17, (mytimer_500ms) >> 8
   \   000000D6   ........           CALL    ??SetCalClkFuncGen_1
    281            tm->AddEvent(&mytimer_500ms);
   \   000000DA   ....               LDI     R18, LOW(mytimer_500ms)
   \   000000DC   ....               LDI     R19, (mytimer_500ms) >> 8
   \   000000DE   01FD               MOVW    R31:R30, R27:R26
   \   000000E0   8104               LDD     R16, Z+4
   \   000000E2   8115               LDD     R17, Z+5
   \   000000E4   ........           CALL    ??AddEvent
    282            mytimer_500ms.Resume();
   \   000000E8   ....               LDI     R16, LOW(mytimer_500ms)
   \   000000EA   ....               LDI     R17, (mytimer_500ms) >> 8
   \   000000EC   ........           CALL    ??Resume
    283            
    284            mySW.SetLed(greenLed);
   \   000000F0   01FD               MOVW    R31:R30, R27:R26
   \   000000F2   8524               LDD     R18, Z+12
   \   000000F4   8535               LDD     R19, Z+13
   \   000000F6   ....               LDI     R16, LOW(mySW)
   \   000000F8   ....               LDI     R17, (mySW) >> 8
   \   000000FA   ........           CALL    ??SetLed_2
    285            mySW.SetCalClkFuncGen(&ccf);
   \   000000FE   ....               LDI     R18, LOW(ccf)
   \   00000100   ....               LDI     R19, (ccf) >> 8
   \   00000102   ....               LDI     R16, LOW(mySW)
   \   00000104   ....               LDI     R17, (mySW) >> 8
   \   00000106   ........           CALL    ??SetCalClkFuncGen_2
    286            swDin->SetEvent(mySW);
   \   0000010A   ....               LDI     R18, LOW(mySW)
   \   0000010C   ....               LDI     R19, (mySW) >> 8
   \   0000010E   01FD               MOVW    R31:R30, R27:R26
   \   00000110   8902               LDD     R16, Z+18
   \   00000112   8913               LDD     R17, Z+19
   \   00000114   ........           CALL    ??SetEvent
    287            
    288            mylcdline1.SetClcd(lcd,Clcd::LINE1);
   \   00000118   E840               LDI     R20, 128
   \   0000011A   01FD               MOVW    R31:R30, R27:R26
   \   0000011C   8522               LDD     R18, Z+10
   \   0000011E   8533               LDD     R19, Z+11
   \   00000120   ....               LDI     R16, LOW(mylcdline1)
   \   00000122   ....               LDI     R17, (mylcdline1) >> 8
   \   00000124   ........           CALL    ??SetClcd
    289            mylcdline2.SetClcd(lcd,Clcd::LINE2);
   \   00000128   EC40               LDI     R20, 192
   \   0000012A   01FD               MOVW    R31:R30, R27:R26
   \   0000012C   8522               LDD     R18, Z+10
   \   0000012E   8533               LDD     R19, Z+11
   \   00000130   ....               LDI     R16, LOW(mylcdline2)
   \   00000132   ....               LDI     R17, (mylcdline2) >> 8
   \   00000134   ........           CALL    ??SetClcd
    290            
    291            myadcEvent.SetCalClkFuncGen(&ccf);
   \   00000138   ....               LDI     R18, LOW(ccf)
   \   0000013A   ....               LDI     R19, (ccf) >> 8
   \   0000013C   ....               LDI     R16, LOW(myadcEvent)
   \   0000013E   ....               LDI     R17, (myadcEvent) >> 8
   \   00000140   ........           CALL    ??SetCalClkFuncGen_3
    292            myserialadp.SetSerial(serial);
   \   00000144   01FD               MOVW    R31:R30, R27:R26
   \   00000146   8520               LDD     R18, Z+8
   \   00000148   8531               LDD     R19, Z+9
   \   0000014A   ....               LDI     R16, LOW(myserialadp)
   \   0000014C   ....               LDI     R17, (myserialadp) >> 8
   \   0000014E   ........           CALL    ??SetSerial
    293            
    294            myserialEvent.SetCalClkFuncGen(&ccf);
   \   00000152   ....               LDI     R18, LOW(ccf)
   \   00000154   ....               LDI     R19, (ccf) >> 8
   \   00000156   ....               LDI     R16, LOW(myserialEvent)
   \   00000158   ....               LDI     R17, (myserialEvent) >> 8
   \   0000015A   ........           CALL    ??SetCalClkFuncGen_4
    295            serial->SetEvent(myserialEvent);
   \   0000015E   ....               LDI     R18, LOW(myserialEvent)
   \   00000160   ....               LDI     R19, (myserialEvent) >> 8
   \   00000162   01FD               MOVW    R31:R30, R27:R26
   \   00000164   8500               LDD     R16, Z+8
   \   00000166   8511               LDD     R17, Z+9
   \   00000168   ........           CALL    ??SetEvent_1
    296            
    297            adc->SetFrequency(100);// 100Hz
   \   0000016C   E624               LDI     R18, 100
   \   0000016E   01FD               MOVW    R31:R30, R27:R26
   \   00000170   8506               LDD     R16, Z+14
   \   00000172   8517               LDD     R17, Z+15
   \   00000174   ........           CALL    ??SetFrequency
    298            adc->Addevent(&myadcEvent);
   \   00000178   ....               LDI     R18, LOW(myadcEvent)
   \   0000017A   ....               LDI     R19, (myadcEvent) >> 8
   \   0000017C   01FD               MOVW    R31:R30, R27:R26
   \   0000017E   8506               LDD     R16, Z+14
   \   00000180   8517               LDD     R17, Z+15
   \   00000182   ........           CALL    ??Addevent
    299            adc->Run();
   \   00000186   01FD               MOVW    R31:R30, R27:R26
   \   00000188   8506               LDD     R16, Z+14
   \   0000018A   8517               LDD     R17, Z+15
   \   0000018C   ........           CALL    ??Run
    300            
    301            myPwmadp.SetPwm(pwm);
   \   00000190   01FD               MOVW    R31:R30, R27:R26
   \   00000192   8920               LDD     R18, Z+16
   \   00000194   8931               LDD     R19, Z+17
   \   00000196   ....               LDI     R16, LOW(myPwmadp)
   \   00000198   ....               LDI     R17, (myPwmadp) >> 8
   \   0000019A   ........           CALL    ??SetPwm
    302            ccf.SetIStringOut(&mylcdline1,&mylcdline2,&myserialadp);
   \   0000019E   ....               LDI     R22, LOW(myserialadp)
   \   000001A0   ....               LDI     R23, (myserialadp) >> 8
   \   000001A2   ....               LDI     R20, LOW(mylcdline2)
   \   000001A4   ....               LDI     R21, (mylcdline2) >> 8
   \   000001A6   ....               LDI     R18, LOW(mylcdline1)
   \   000001A8   ....               LDI     R19, (mylcdline1) >> 8
   \   000001AA   ....               LDI     R16, LOW(ccf)
   \   000001AC   ....               LDI     R17, (ccf) >> 8
   \   000001AE   ........           CALL    ??SetIStringOut
    303            ccf.SetPwm(&myPwmadp);
   \   000001B2   ....               LDI     R18, LOW(myPwmadp)
   \   000001B4   ....               LDI     R19, (myPwmadp) >> 8
   \   000001B6   ....               LDI     R16, LOW(ccf)
   \   000001B8   ....               LDI     R17, (ccf) >> 8
   \   000001BA   ........           CALL    ??SetPwm_1
    304            
    305            serial->Write(gnu_lic);
   \   000001BE   ....               LDI     R18, LOW(gnu_lic)
   \   000001C0   ....               LDI     R19, (gnu_lic) >> 8
   \   000001C2   01FD               MOVW    R31:R30, R27:R26
   \   000001C4   8500               LDD     R16, Z+8
   \   000001C6   8511               LDD     R17, Z+9
   \   000001C8   ........           CALL    ??Write_2
    306            
    307            ccf.Init();
   \   000001CC   ....               LDI     R16, LOW(ccf)
   \   000001CE   ....               LDI     R17, (ccf) >> 8
   \   000001D0   ........           CALL    ??Init_1
    308          
    309            
    310          }
   \   000001D4   91A9               LD      R26, Y+
   \   000001D6   91B9               LD      R27, Y+
   \   000001D8   9508               RET

   \                                 In  segment NEAR_ID, align 1, keep-with-next
   \                     `?<Initializer for <Constant "0 != _ccf">>`:
   \   00000000   20303D215F20       DC8 "0 != _ccf"
   \              63630066    

   \                                 In  segment NEAR_ID, align 1, keep-with-next
   \                     `?<Initializer for <Constant "C:\\\\work\\\\APP\\\\Te`:
   \   00000000   3A43775C726F       DC8 "C:\\work\\APP\\Term_Project\\Term_Project_s.cpp"
   \              5C6B50415C50
   \              65546D72505F
   \              6F72656A7463
   \              545C72655F6D
   \              72506A6F6365
   \              5F742E737063
   \              0070        

   \                                 In  segment NEAR_ID, align 1, keep-with-next
   \                     `?<Initializer for <Constant "0 != _pwm">>`:
   \   00000000   20303D215F20       DC8 "0 != _pwm"
   \              7770006D    

   \                                 In  segment NEAR_ID, align 1, keep-with-next
   \                     `?<Initializer for <Constant "\\n">>`:
   \   00000000   000A               DC8 "\012"

   \                                 In  segment NEAR_ID, align 1, keep-with-next
   \                     `?<Initializer for <Constant "0 != _serial">>`:
   \   00000000   20303D215F20       DC8 "0 != _serial"
   \              657369726C61
   \              00          

   \                                 In  segment NEAR_ID, align 1, keep-with-next
   \                     `?<Initializer for <Constant "0 != _str">>`:
   \   00000000   20303D215F20       DC8 "0 != _str"
   \              74730072    

   \                                 In  segment NEAR_ID, align 1, keep-with-next
   \                     `?<Initializer for <Constant "0 != _lcd">>`:
   \   00000000   20303D215F20       DC8 "0 != _lcd"
   \              636C0064    

   \                                 In  segment NEAR_ID, align 1, keep-with-next
   \                     `?<Initializer for >`:
   \   00000000   ............       DC16 ?_1, myApp, `?<Unnamed 0>`/2

   \                                 In  segment NEAR_ID, align 1, keep-with-next
   \                     `?<Initializer for >_1`:
   \   00000000   ............       DC16 ?_3, ccf, `?<Unnamed 1>`/2

   \                                 In  segment NEAR_ID, align 1, keep-with-next
   \                     `?<Initializer for >_2`:
   \   00000000   ............       DC16 ?_5, myadcEvent, `?<Unnamed 2>`/2

   \                                 In  segment NEAR_ID, align 1, keep-with-next
   \                     `?<Initializer for >_3`:
   \   00000000   ............       DC16 ?_7, myPwmadp, `?<Unnamed 3>`/2

   \                                 In  segment NEAR_ID, align 1, keep-with-next
   \                     `?<Initializer for >_4`:
   \   00000000   ............       DC16 ?_9, mylcdline1, `?<Unnamed 4>`/2

   \                                 In  segment NEAR_ID, align 1, keep-with-next
   \                     `?<Initializer for >_5`:
   \   00000000   ............       DC16 ?_11, mylcdline2, `?<Unnamed 4>`/2

   \                                 In  segment NEAR_ID, align 1, keep-with-next
   \                     `?<Initializer for >_6`:
   \   00000000   ............       DC16 ?_13, myserialadp, `?<Unnamed 5>`/2

   \                                 In  segment NEAR_ID, align 1, keep-with-next
   \                     `?<Initializer for >_7`:
   \   00000000   ............       DC16 ?_15, myserialEvent, `?<Unnamed 6>`/2

   \                                 In  segment NEAR_ID, align 1, keep-with-next
   \                     `?<Initializer for >_8`:
   \   00000000   ............       DC16 ?_17, mytimer_1sec, `?<Unnamed 7>`/2

   \                                 In  segment NEAR_ID, align 1, keep-with-next
   \                     `?<Initializer for >_9`:
   \   00000000   ............       DC16 ?_19, mytimer_500ms, `?<Unnamed 8>`/2

   \                                 In  segment NEAR_ID, align 1, keep-with-next
   \                     `?<Initializer for >_10`:
   \   00000000   ............       DC16 ?_21, mySW, `?<Unnamed 9>`/2

   \                                 In  segment DIFUNCT, align 1, keep-with-next, root
   \   00000000                      REQUIRE ?call_ctors
   \   00000000   ....               DW      ??__sti__routine/2

   \                                 In  segment NEAR_I, align 1, keep-with-next
   \   00000000                      REQUIRE `?<Segment init: NEAR_I>`
   \                     `?<Constant "0 != _ccf">`:
   \   00000000                      DS8 10
   \   0000000A                      REQUIRE `?<Initializer for <Constant "0 != _ccf">>`

   \                                 In  segment NEAR_I, align 1, keep-with-next
   \   00000000                      REQUIRE `?<Segment init: NEAR_I>`
   \                     `?<Constant "C:\\\\work\\\\APP\\\\Term_Proj...">`:
   \   00000000                      DS8 44
   \   0000002C                      REQUIRE `?<Initializer for <Constant "C:\\\\work\\\\APP\\\\Te`

   \                                 In  segment NEAR_I, align 1, keep-with-next
   \   00000000                      REQUIRE `?<Segment init: NEAR_I>`
   \                     `?<Constant "0 != _pwm">`:
   \   00000000                      DS8 10
   \   0000000A                      REQUIRE `?<Initializer for <Constant "0 != _pwm">>`

   \                                 In  segment NEAR_I, align 1, keep-with-next
   \   00000000                      REQUIRE `?<Segment init: NEAR_I>`
   \                     `?<Constant "\\n">`:
   \   00000000                      DS8 2
   \   00000002                      REQUIRE `?<Initializer for <Constant "\\n">>`

   \                                 In  segment NEAR_I, align 1, keep-with-next
   \   00000000                      REQUIRE `?<Segment init: NEAR_I>`
   \                     `?<Constant "0 != _serial">`:
   \   00000000                      DS8 13
   \   0000000D                      REQUIRE `?<Initializer for <Constant "0 != _serial">>`

   \                                 In  segment NEAR_I, align 1, keep-with-next
   \   00000000                      REQUIRE `?<Segment init: NEAR_I>`
   \                     `?<Constant "0 != _str">`:
   \   00000000                      DS8 10
   \   0000000A                      REQUIRE `?<Initializer for <Constant "0 != _str">>`

   \                                 In  segment NEAR_I, align 1, keep-with-next
   \   00000000                      REQUIRE `?<Segment init: NEAR_I>`
   \                     `?<Constant "0 != _lcd">`:
   \   00000000                      DS8 10
   \   0000000A                      REQUIRE `?<Initializer for <Constant "0 != _lcd">>`

   \                                 In  segment CODE, align 2, keep-with-next
   \   __nearfunc __version_3 Term_Project_s *Term_Project_s::new Term_Project_s()
   \                     `??new Term_Project_s`:
   \   00000000   E104               LDI     R16, 20
   \   00000002   E010               LDI     R17, 0
   \   00000004   ........           CALL    `??operator new`
   \   00000008   0198               MOVW    R19:R18, R17:R16
   \   0000000A   2B01               OR      R16, R17
   \   0000000C   F019               BREQ    `??new Term_Project_s_1`
   \   0000000E   0189               MOVW    R17:R16, R19:R18
   \   00000010   ....               RCALL   ??Term_Project_s
   \   00000012   9508               RET
   \                     `??new Term_Project_s_1`:
   \   00000014   E000               LDI     R16, 0
   \   00000016   E010               LDI     R17, 0
   \   00000018   9508               RET
    311           

   Maximum stack usage in bytes:

     Function                       CSTACK RSTACK
     --------                       ------ ------
     <Unnamed 0>                        2      2
       -> Term_Project_s::~Term_Project_s()
                                        2      2
     <Unnamed 1>                        2      2
       -> CalClkFuncGen::~CalClkFuncGen()
                                        2      2
     <Unnamed 2>                        2      2
       -> myAdcAdaptor::~myAdcAdaptor()
                                        2      2
     <Unnamed 3>                        2      2
       -> myPwmAdaptor::~myPwmAdaptor()
                                        2      2
     <Unnamed 4>                        2      2
       -> mylcdAdaptor::~mylcdAdaptor()
                                        2      2
     <Unnamed 5>                        2      2
       -> mySerialOutAdaptor::~mySerialOutAdaptor()
                                        2      2
     <Unnamed 6>                        2      2
       -> mySerialEvent::~mySerialEvent()
                                        2      2
     <Unnamed 7>                        2      2
       -> myTimer1s::~myTimer1s()       2      2
     <Unnamed 8>                        2      2
       -> myTimer500ms::~myTimer500ms()
                                        2      2
     <Unnamed 9>                        2      2
       -> mySWEvent::~mySWEvent()       2      2
     AdcEvent::AdcEvent()               0      2
     AdcEvent::~AdcEvent()              2      2
       -> operator delete(void *)       2      2
     DInEvent::DInEvent()               0      2
     DInEvent::~DInEvent()              2      2
       -> operator delete(void *)       2      2
     IPwmOut::IPwmOut()                 0      2
     IPwmOut::~IPwmOut()                2      2
       -> operator delete(void *)       2      2
     IStringOut::IStringOut()           0      2
     IStringOut::~IStringOut()          2      2
       -> operator delete(void *)       2      2
     ITimerEvent::ITimerEvent(unsigned char, unsigned short)
                                        0      2
     ITimerEvent::Resume()              0      2
     ITimerEvent::~ITimerEvent()        2      2
       -> operator delete(void *)       2      2
     SerialEvent::SerialEvent()         0      2
     SerialEvent::~SerialEvent()        2      2
       -> operator delete(void *)       2      2
     SystemManager::Exit()              0      2
     Term_Project_s::Init()             2      2
       -> GetDriverFactory()            2      2
       -> GetBCComponentManager()       2      2
       -> BCComponentManager::CreateTimer()
                                        2      2
       -> GetBCComponentManager()       2      2
       -> BCComponentManager::CreateLed(BCComponentManager::LED)
                                        2      2
       -> GetBCComponentManager()       2      2
       -> BCComponentManager::CreateDIn()
                                        2      2
       -> GetBCComponentManager()       2      2
       -> BCComponentManager::CreateSerialIO(unsigned char)
                                        2      2
       -> GetBCComponentManager()       2      2
       -> BCComponentManager::CreateAdc()
                                        2      2
       -> GetBCComponentManager()       2      2
       -> BCComponentManager::CreatePwm()
                                        2      2
       ->   Indirect call               2      2
       -> myTimer1s::SetLed(Led *)      2      2
       -> myTimer1s::SetCalClkFuncGen(CalClkFuncGen *)
                                        2      2
       -> TimerManager::AddEvent(ITimerEvent *)
                                        2      2
       -> ITimerEvent::Resume()         2      2
       -> myTimer500ms::SetLed(Led *)
                                        2      2
       -> myTimer500ms::SetCalClkFuncGen(CalClkFuncGen *)
                                        2      2
       -> TimerManager::AddEvent(ITimerEvent *)
                                        2      2
       -> ITimerEvent::Resume()         2      2
       -> mySWEvent::SetLed(Led *)      2      2
       -> mySWEvent::SetCalClkFuncGen(CalClkFuncGen *)
                                        2      2
       -> DIn::SetEvent(DInEvent &)     2      2
       -> mylcdAdaptor::SetClcd(Clcd *, unsigned char)
                                        2      2
       -> mylcdAdaptor::SetClcd(Clcd *, unsigned char)
                                        2      2
       -> myAdcAdaptor::SetCalClkFuncGen(CalClkFuncGen *)
                                        2      2
       -> mySerialOutAdaptor::SetSerial(SerialIO *)
                                        2      2
       -> mySerialEvent::SetCalClkFuncGen(CalClkFuncGen *)
                                        2      2
       -> SerialIO::SetEvent(SerialEvent &)
                                        2      2
       -> Adc::SetFrequency(unsigned char)
                                        2      2
       -> Adc::Addevent(AdcEvent *)     2      2
       -> Adc::Run()                    2      2
       -> myPwmAdaptor::SetPwm(Pwm *)
                                        2      2
       -> CalClkFuncGen::SetIStringOut(IStringOut *, IStringOut *, IStringOut *)
                                        2      2
       -> CalClkFuncGen::SetPwm(IPwmOut *)
                                        2      2
       -> SerialIO::Write(char __flash *)
                                        2      2
       -> CalClkFuncGen::Init()         2      2
     Term_Project_s::Term_Project_s()
                                        2      2
       -> SystemManager::SystemManager()
                                        2      2
     Term_Project_s::new Term_Project_s()
                                        0      2
       -> operator new(size_t)          0      2
       -> Term_Project_s::Term_Project_s()
                                        0      2
     Term_Project_s::~Term_Project_s()
                                        4      2
       -> SystemManager::~SystemManager()
                                        4      2
       -> operator delete(void *)       4      2
     __sti__routine()                   0      2
       -> Term_Project_s::Term_Project_s()
                                        0      2
       -> __record_needed_destruction
                                        0      2
       -> CalClkFuncGen::CalClkFuncGen()
                                        0      2
       -> __record_needed_destruction
                                        0      2
       -> myAdcAdaptor::myAdcAdaptor()
                                        0      2
       -> __record_needed_destruction
                                        0      2
       -> myPwmAdaptor::myPwmAdaptor()
                                        0      2
       -> __record_needed_destruction
                                        0      2
       -> mylcdAdaptor::mylcdAdaptor()
                                        0      2
       -> __record_needed_destruction
                                        0      2
       -> mylcdAdaptor::mylcdAdaptor()
                                        0      2
       -> __record_needed_destruction
                                        0      2
       -> mySerialOutAdaptor::mySerialOutAdaptor()
                                        0      2
       -> __record_needed_destruction
                                        0      2
       -> mySerialEvent::mySerialEvent()
                                        0      2
       -> __record_needed_destruction
                                        0      2
       -> myTimer1s::myTimer1s()        0      2
       -> __record_needed_destruction
                                        0      2
       -> myTimer500ms::myTimer500ms()
                                        0      2
       -> __record_needed_destruction
                                        0      2
       -> mySWEvent::mySWEvent()        0      2
       -> __record_needed_destruction
                                        0      2
     myAdcAdaptor::Converted(unsigned short)
                                        4      2
       -> CalClkFuncGen::InputAdc(unsigned short)
                                        4      2
     myAdcAdaptor::SetCalClkFuncGen(CalClkFuncGen *)
                                        4      2
       -> __taabi_assert                4      2
       -> __iar_EmptyStepPoint          4      2
     myAdcAdaptor::myAdcAdaptor()       2      2
       -> AdcEvent::AdcEvent()          2      2
     myAdcAdaptor::~myAdcAdaptor()      4      2
       -> AdcEvent::~AdcEvent()         4      2
       -> operator delete(void *)       4      2
     myPwmAdaptor::SetDuty(unsigned short)
                                        4      2
       -> Pwm::SetDuty(unsigned short)
                                        4      2
     myPwmAdaptor::SetPwm(Pwm *)        4      2
       -> __taabi_assert                4      2
       -> __iar_EmptyStepPoint          4      2
     myPwmAdaptor::myPwmAdaptor()       2      2
       -> IPwmOut::IPwmOut()            2      2
     myPwmAdaptor::~myPwmAdaptor()      4      2
       -> IPwmOut::~IPwmOut()           4      2
       -> operator delete(void *)       4      2
     mySWEvent::Changed(DInEvent::EDGE)
                                        4      2
       -> CalClkFuncGen::Switch()       4      2
     mySWEvent::SetCalClkFuncGen(CalClkFuncGen *)
                                        4      2
       -> __taabi_assert                4      2
       -> __iar_EmptyStepPoint          4      2
     mySWEvent::SetLed(Led *)           0      2
     mySWEvent::mySWEvent()             2      2
       -> DInEvent::DInEvent()          2      2
     mySWEvent::~mySWEvent()            4      2
       -> DInEvent::~DInEvent()         4      2
       -> operator delete(void *)       4      2
     mySerialEvent::Receive(unsigned char)
                                        4      2
       -> SerialIO::Write(unsigned char)
                                        4      2
       -> SerialIO::Write(char const *)
                                        4      2
       -> CalClkFuncGen::InputCh(char)
                                        4      2
     mySerialEvent::SetCalClkFuncGen(CalClkFuncGen *)
                                        4      2
       -> __taabi_assert                4      2
       -> __iar_EmptyStepPoint          4      2
     mySerialEvent::mySerialEvent()     2      2
       -> SerialEvent::SerialEvent()
                                        2      2
     mySerialEvent::~mySerialEvent()
                                        4      2
       -> SerialEvent::~SerialEvent()
                                        4      2
       -> operator delete(void *)       4      2
     mySerialOutAdaptor::SetSerial(SerialIO *)
                                        4      2
       -> __taabi_assert                4      2
       -> __iar_EmptyStepPoint          4      2
     mySerialOutAdaptor::Write(char *)
                                        4      2
       -> __taabi_assert                4      2
       -> __iar_EmptyStepPoint          4      2
       -> SerialIO::Write(char const *)
                                        4      2
     mySerialOutAdaptor::mySerialOutAdaptor()
                                        2      2
       -> IStringOut::IStringOut()      2      2
     mySerialOutAdaptor::~mySerialOutAdaptor()
                                        4      2
       -> IStringOut::~IStringOut()     4      2
       -> operator delete(void *)       4      2
     myTimer1s::SetCalClkFuncGen(CalClkFuncGen *)
                                        4      2
       -> __taabi_assert                4      2
       -> __iar_EmptyStepPoint          4      2
     myTimer1s::SetLed(Led *)           0      2
     myTimer1s::TimeOutEvent()          2      2
       -> DOut::Flip(unsigned char)     2      2
       -> CalClkFuncGen::tm1s()         2      2
     myTimer1s::myTimer1s()             2      2
       -> ITimerEvent::ITimerEvent(unsigned char, unsigned short)
                                        2      2
     myTimer1s::~myTimer1s()            4      2
       -> ITimerEvent::~ITimerEvent()
                                        4      2
       -> operator delete(void *)       4      2
     myTimer500ms::SetCalClkFuncGen(CalClkFuncGen *)
                                        4      2
       -> __taabi_assert                4      2
       -> __iar_EmptyStepPoint          4      2
     myTimer500ms::SetLed(Led *)        0      2
     myTimer500ms::TimeOutEvent()       2      2
       -> DOut::Flip(unsigned char)     2      2
       -> CalClkFuncGen::tm500ms()      2      2
     myTimer500ms::myTimer500ms()       2      2
       -> ITimerEvent::ITimerEvent(unsigned char, unsigned short)
                                        2      2
     myTimer500ms::~myTimer500ms()      4      2
       -> ITimerEvent::~ITimerEvent()
                                        4      2
       -> operator delete(void *)       4      2
     mylcdAdaptor::SetClcd(Clcd *, unsigned char)
                                        5      2
       -> __taabi_assert                5      2
       -> __iar_EmptyStepPoint          5      2
     mylcdAdaptor::Write(char *)        4      2
       -> Clcd::Write(unsigned char, char *)
                                        4      2
     mylcdAdaptor::mylcdAdaptor()       2      2
       -> IStringOut::IStringOut()      2      2
     mylcdAdaptor::~mylcdAdaptor()      4      2
       -> IStringOut::~IStringOut()     4      2
       -> operator delete(void *)       4      2


   Segment part sizes:

     Function/Label                                 Bytes
     --------------                                 -----
     ITimerEvent::ITimerEvent(unsigned char, unsigned short)
                                                      18
     ITimerEvent::~ITimerEvent()                      30
     ITimerEvent::Resume()                             8
     SerialEvent::SerialEvent()                        2
     SerialEvent::~SerialEvent()                      30
     DInEvent::DInEvent()                              2
     DInEvent::~DInEvent()                            30
     AdcEvent::AdcEvent()                              2
     AdcEvent::~AdcEvent()                            30
     SystemManager::Exit()                             2
     Term_Project_s::~Term_Project_s()
                                                      42
     IPwmOut::IPwmOut()                                2
     IPwmOut::~IPwmOut()                              30
     IStringOut::IStringOut()                          2
     IStringOut::~IStringOut()                        30
     myTimer1s::~myTimer1s()                          42
     myTimer1s::myTimer1s()                           38
     myTimer1s::SetLed(Led *)                          8
     myTimer1s::SetCalClkFuncGen(CalClkFuncGen *)
                                                      46
     myTimer1s::TimeOutEvent()                        62
     myTimer500ms::~myTimer500ms()                    42
     myTimer500ms::myTimer500ms()                     38
     myTimer500ms::SetLed(Led *)                       8
     myTimer500ms::SetCalClkFuncGen(CalClkFuncGen *)
                                                      46
     myTimer500ms::TimeOutEvent()                     62
     mySWEvent::mySWEvent()                           30
     mySWEvent::~mySWEvent()                          42
     mySWEvent::SetLed(Led *)                          8
     mySWEvent::SetCalClkFuncGen(CalClkFuncGen *)
                                                      46
     mySWEvent::Changed(DInEvent::EDGE)
                                                      42
     myAdcAdaptor::myAdcAdaptor()                     30
     myAdcAdaptor::~myAdcAdaptor()                    42
     myAdcAdaptor::SetCalClkFuncGen(CalClkFuncGen *)
                                                      46
     myAdcAdaptor::Converted(unsigned short)
                                                      40
     myPwmAdaptor::myPwmAdaptor()                     30
     myPwmAdaptor::~myPwmAdaptor()                    42
     myPwmAdaptor::SetPwm(Pwm *)                      46
     myPwmAdaptor::SetDuty(unsigned short)
                                                      40
     mySerialEvent::mySerialEvent()                   32
     mySerialEvent::~mySerialEvent()
                                                      42
     mySerialEvent::Receive(unsigned char)
                                                      66
     mySerialEvent::SetCalClkFuncGen(CalClkFuncGen *)
                                                      46
     mySerialOutAdaptor::mySerialOutAdaptor()
                                                      30
     mySerialOutAdaptor::~mySerialOutAdaptor()
                                                      42
     mySerialOutAdaptor::SetSerial(SerialIO *)
                                                      46
     mySerialOutAdaptor::Write(char *)
                                                      62
     mylcdAdaptor::mylcdAdaptor()                     30
     mylcdAdaptor::~mylcdAdaptor()                    42
     mylcdAdaptor::SetClcd(Clcd *, unsigned char)
                                                      52
     mylcdAdaptor::Write(char *)                      40
     __sti__routine()                                176
     ?<Unnamed 0>                                     22
     myApp                                            20
     ?<Unnamed 1>                                     22
     ccf                                              30
     ?<Unnamed 2>                                     22
     myadcEvent                                        4
     ?<Unnamed 3>                                     22
     myPwmadp                                          4
     ?<Unnamed 4>                                     22
     mylcdline1                                        5
     mylcdline2                                        5
     ?<Unnamed 5>                                     22
     myserialadp                                       4
     ?<Unnamed 6>                                     22
     myserialEvent                                     6
     ?<Unnamed 7>                                     22
     mytimer_1sec                                     12
     ?<Unnamed 8>                                     22
     mytimer_500ms                                    12
     ?<Unnamed 9>                                     22
     mySW                                              6
     Term_Project_s::Term_Project_s()
                                                      32
     Term_Project_s::Init()                          474
     ?<Initializer for <Constant "0 != _ccf">>        10
     ?<Initializer for <Constant "C:\\work\\APP\\Te   44
     ?<Initializer for <Constant "0 != _pwm">>        10
     ?<Initializer for <Constant "\n">>                2
     ?<Initializer for <Constant "0 != _serial">>     13
     ?<Initializer for <Constant "0 != _str">>        10
     ?<Initializer for <Constant "0 != _lcd">>        10
     ?<Initializer for >                               6
     ?<Initializer for >_1                             6
     ?<Initializer for >_2                             6
     ?<Initializer for >_3                             6
     ?<Initializer for >_4                             6
     ?<Initializer for >_5                             6
     ?<Initializer for >_6                             6
     ?<Initializer for >_7                             6
     ?<Initializer for >_8                             6
     ?<Initializer for >_9                             6
     ?<Initializer for >_10                            6
     ?<Constant "0 != _ccf">                          10
     ?<Constant "C:\\work\\APP\\Term_Proj...">        44
     ?<Constant "0 != _pwm">                          10
     ?<Constant "\n">                                  2
     ?<Constant "0 != _serial">                       13
     ?<Constant "0 != _str">                          10
     ?<Constant "0 != _lcd">                          10
     Term_Project_s::new Term_Project_s()
                                                      26
      Others                                         142

 
 2 594 bytes in segment CODE
     2 bytes in segment DIFUNCT
    14 bytes in segment INITTAB
    38 bytes in segment NEAR_F
   165 bytes in segment NEAR_I
   165 bytes in segment NEAR_ID
   130 bytes in segment NEAR_Z
 
 1 127 bytes of CODE memory (+ 1 686 bytes shared)
   295 bytes of DATA memory

Errors: none
Warnings: 1
